
main.elf:     file format elf32-littleriscv


Disassembly of section .text:

00000000 <_isr_handler>:
       0:	0080006f          	j	8 <_isr_routine>
       4:	1440006f          	j	148 <_start>

00000008 <_isr_routine>:
       8:	f8010113          	addi	sp,sp,-128
       c:	00112023          	sw	ra,0(sp)
      10:	00312423          	sw	gp,8(sp)
      14:	00412623          	sw	tp,12(sp)
      18:	00512823          	sw	t0,16(sp)
      1c:	00612a23          	sw	t1,20(sp)
      20:	00712c23          	sw	t2,24(sp)
      24:	00812e23          	sw	s0,28(sp)
      28:	02912023          	sw	s1,32(sp)
      2c:	02a12223          	sw	a0,36(sp)
      30:	02b12423          	sw	a1,40(sp)
      34:	02c12623          	sw	a2,44(sp)
      38:	02d12823          	sw	a3,48(sp)
      3c:	02e12a23          	sw	a4,52(sp)
      40:	02f12c23          	sw	a5,56(sp)
      44:	03012e23          	sw	a6,60(sp)
      48:	05112023          	sw	a7,64(sp)
      4c:	05212223          	sw	s2,68(sp)
      50:	05312423          	sw	s3,72(sp)
      54:	05412623          	sw	s4,76(sp)
      58:	05512823          	sw	s5,80(sp)
      5c:	05612a23          	sw	s6,84(sp)
      60:	05712c23          	sw	s7,88(sp)
      64:	05812e23          	sw	s8,92(sp)
      68:	07912023          	sw	s9,96(sp)
      6c:	07a12223          	sw	s10,100(sp)
      70:	07b12423          	sw	s11,104(sp)
      74:	07c12623          	sw	t3,108(sp)
      78:	07d12823          	sw	t4,112(sp)
      7c:	07e12a23          	sw	t5,116(sp)
      80:	07f12c23          	sw	t6,120(sp)
      84:	342022f3          	csrr	t0,mcause
      88:	80000337          	lui	t1,0x80000
      8c:	02536463          	bltu	t1,t0,b4 <external_irq>
      90:	00028833          	add	a6,t0,zero
      94:	00b00313          	li	t1,11
      98:	00628463          	beq	t0,t1,a0 <skip_init_args>
      9c:	34102573          	csrr	a0,mepc

000000a0 <skip_init_args>:
      a0:	118020ef          	jal	21b8 <handle_exception>
      a4:	341022f3          	csrr	t0,mepc
      a8:	00428293          	addi	t0,t0,4
      ac:	34129073          	csrw	mepc,t0
      b0:	0180006f          	j	c8 <restore>

000000b4 <external_irq>:
      b4:	800002b7          	lui	t0,0x80000
      b8:	fff28293          	addi	t0,t0,-1 # 7fffffff <_stack_end+0x7fefade7>
      bc:	34202373          	csrr	t1,mcause
      c0:	0062f533          	and	a0,t0,t1
      c4:	061010ef          	jal	1924 <handle_interrupt>

000000c8 <restore>:
      c8:	00012083          	lw	ra,0(sp)
      cc:	00812183          	lw	gp,8(sp)
      d0:	00c12203          	lw	tp,12(sp)
      d4:	01012283          	lw	t0,16(sp)
      d8:	01412303          	lw	t1,20(sp)
      dc:	01812383          	lw	t2,24(sp)
      e0:	01c12403          	lw	s0,28(sp)
      e4:	02012483          	lw	s1,32(sp)
      e8:	02412503          	lw	a0,36(sp)
      ec:	02812583          	lw	a1,40(sp)
      f0:	02c12603          	lw	a2,44(sp)
      f4:	03012683          	lw	a3,48(sp)
      f8:	03412703          	lw	a4,52(sp)
      fc:	03812783          	lw	a5,56(sp)
     100:	03c12803          	lw	a6,60(sp)
     104:	04012883          	lw	a7,64(sp)
     108:	04412903          	lw	s2,68(sp)
     10c:	04812983          	lw	s3,72(sp)
     110:	04c12a03          	lw	s4,76(sp)
     114:	05012a83          	lw	s5,80(sp)
     118:	05412b03          	lw	s6,84(sp)
     11c:	05812b83          	lw	s7,88(sp)
     120:	05c12c03          	lw	s8,92(sp)
     124:	06012c83          	lw	s9,96(sp)
     128:	06412d03          	lw	s10,100(sp)
     12c:	06812d83          	lw	s11,104(sp)
     130:	06c12e03          	lw	t3,108(sp)
     134:	07012e83          	lw	t4,112(sp)
     138:	07412f03          	lw	t5,116(sp)
     13c:	07812f83          	lw	t6,120(sp)
     140:	08010113          	addi	sp,sp,128
     144:	30200073          	mret

00000148 <_start>:
     148:	30401073          	csrw	mie,zero
     14c:	00105117          	auipc	sp,0x105
     150:	0cc10113          	addi	sp,sp,204 # 105218 <_stack_end>
     154:	00003197          	auipc	gp,0x3
     158:	b9c18193          	addi	gp,gp,-1124 # 2cf0 <__global_pointer>
     15c:	00002517          	auipc	a0,0x2
     160:	30050513          	addi	a0,a0,768 # 245c <welcome_msg>
     164:	00400893          	li	a7,4
     168:	00000073          	ecall
     16c:	645010ef          	jal	1fb0 <main>

00000170 <loop>:
     170:	0000006f          	j	170 <loop>

00000174 <enable_interrupt>:
     174:	00000517          	auipc	a0,0x0
     178:	e8c50513          	addi	a0,a0,-372 # 0 <_isr_handler>
     17c:	30551073          	csrw	mtvec,a0
     180:	30486073          	csrsi	mie,16
     184:	3048e073          	csrsi	mie,17
     188:	30496073          	csrsi	mie,18
     18c:	3001e073          	csrsi	mstatus,3
     190:	00008067          	ret

00000194 <same_color.part.0>:
     194:	fff50793          	addi	a5,a0,-1
     198:	00500713          	li	a4,5
     19c:	00f77e63          	bgeu	a4,a5,1b8 <same_color.part.0+0x24>
     1a0:	ff950793          	addi	a5,a0,-7
     1a4:	00000513          	li	a0,0
     1a8:	00f76663          	bltu	a4,a5,1b4 <same_color.part.0+0x20>
     1ac:	ff958593          	addi	a1,a1,-7
     1b0:	0065b513          	sltiu	a0,a1,6
     1b4:	00008067          	ret
     1b8:	fff58593          	addi	a1,a1,-1
     1bc:	0065b513          	sltiu	a0,a1,6
     1c0:	00008067          	ret

000001c4 <pawn_move>:
     1c4:	fff70813          	addi	a6,a4,-1
     1c8:	0ff87813          	zext.b	a6,a6
     1cc:	00500793          	li	a5,5
     1d0:	00050893          	mv	a7,a0
     1d4:	40b68333          	sub	t1,a3,a1
     1d8:	40a60533          	sub	a0,a2,a0
     1dc:	0b07f263          	bgeu	a5,a6,280 <pawn_move+0xbc>
     1e0:	00200e93          	li	t4,2
     1e4:	00200f93          	li	t6,2
     1e8:	00700f13          	li	t5,7
     1ec:	00100e13          	li	t3,1
     1f0:	000027b7          	lui	a5,0x2
     1f4:	53078793          	addi	a5,a5,1328 # 2530 <board>
     1f8:	00369693          	slli	a3,a3,0x3
     1fc:	00d786b3          	add	a3,a5,a3
     200:	00c68633          	add	a2,a3,a2
     204:	00064683          	lbu	a3,0(a2)
     208:	00051863          	bnez	a0,218 <pawn_move+0x54>
     20c:	066e0663          	beq	t3,t1,278 <pawn_move+0xb4>
     210:	09d30263          	beq	t1,t4,294 <pawn_move+0xd0>
     214:	00008067          	ret
     218:	00150513          	addi	a0,a0,1
     21c:	ffd57793          	andi	a5,a0,-3
     220:	00000513          	li	a0,0
     224:	fe0798e3          	bnez	a5,214 <pawn_move+0x50>
     228:	fe6e16e3          	bne	t3,t1,214 <pawn_move+0x50>
     22c:	fe0684e3          	beqz	a3,214 <pawn_move+0x50>
     230:	00100513          	li	a0,1
     234:	fe0700e3          	beqz	a4,214 <pawn_move+0x50>
     238:	ff010113          	addi	sp,sp,-16
     23c:	00068593          	mv	a1,a3
     240:	00070513          	mv	a0,a4
     244:	00112623          	sw	ra,12(sp)
     248:	f4dff0ef          	jal	194 <same_color.part.0>
     24c:	00c12083          	lw	ra,12(sp)
     250:	00153513          	seqz	a0,a0
     254:	01010113          	addi	sp,sp,16
     258:	00008067          	ret
     25c:	00600713          	li	a4,6
     260:	fae59ae3          	bne	a1,a4,214 <pawn_move+0x50>
     264:	003f1f13          	slli	t5,t5,0x3
     268:	01e787b3          	add	a5,a5,t5
     26c:	01178533          	add	a0,a5,a7
     270:	00054783          	lbu	a5,0(a0)
     274:	00f6e6b3          	or	a3,a3,a5
     278:	0016b513          	seqz	a0,a3
     27c:	00008067          	ret
     280:	ffe00e93          	li	t4,-2
     284:	00000f93          	li	t6,0
     288:	00500f13          	li	t5,5
     28c:	fff00e13          	li	t3,-1
     290:	f61ff06f          	j	1f0 <pawn_move+0x2c>
     294:	00500713          	li	a4,5
     298:	fd0772e3          	bgeu	a4,a6,25c <pawn_move+0x98>
     29c:	00100713          	li	a4,1
     2a0:	02e59063          	bne	a1,a4,2c0 <pawn_move+0xfc>
     2a4:	003f9f93          	slli	t6,t6,0x3
     2a8:	01f787b3          	add	a5,a5,t6
     2ac:	01178533          	add	a0,a5,a7
     2b0:	00054783          	lbu	a5,0(a0)
     2b4:	00f6e6b3          	or	a3,a3,a5
     2b8:	0016b513          	seqz	a0,a3
     2bc:	00008067          	ret
     2c0:	00008067          	ret

000002c4 <bishop_move>:
     2c4:	40a60833          	sub	a6,a2,a0
     2c8:	00050793          	mv	a5,a0
     2cc:	40b68733          	sub	a4,a3,a1
     2d0:	00084c63          	bltz	a6,2e8 <bishop_move+0x24>
     2d4:	00075463          	bgez	a4,2dc <bishop_move+0x18>
     2d8:	40d58733          	sub	a4,a1,a3
     2dc:	00000513          	li	a0,0
     2e0:	00e80863          	beq	a6,a4,2f0 <bishop_move+0x2c>
     2e4:	00008067          	ret
     2e8:	40c50833          	sub	a6,a0,a2
     2ec:	fe9ff06f          	j	2d4 <bishop_move+0x10>
     2f0:	1ac7d663          	bge	a5,a2,49c <bishop_move+0x1d8>
     2f4:	00100513          	li	a0,1
     2f8:	1ad5d863          	bge	a1,a3,4a8 <bishop_move+0x1e4>
     2fc:	00178893          	addi	a7,a5,1
     300:	00158713          	addi	a4,a1,1
     304:	21160263          	beq	a2,a7,508 <bishop_move+0x244>
     308:	00e8e833          	or	a6,a7,a4
     30c:	00700313          	li	t1,7
     310:	00000513          	li	a0,0
     314:	fd0368e3          	bltu	t1,a6,2e4 <bishop_move+0x20>
     318:	00002837          	lui	a6,0x2
     31c:	53080813          	addi	a6,a6,1328 # 2530 <board>
     320:	00371713          	slli	a4,a4,0x3
     324:	00e80733          	add	a4,a6,a4
     328:	01170733          	add	a4,a4,a7
     32c:	00074703          	lbu	a4,0(a4)
     330:	fa071ae3          	bnez	a4,2e4 <bishop_move+0x20>
     334:	00278313          	addi	t1,a5,2
     338:	00258713          	addi	a4,a1,2
     33c:	1e660063          	beq	a2,t1,51c <bishop_move+0x258>
     340:	00e368b3          	or	a7,t1,a4
     344:	00700e13          	li	t3,7
     348:	00000513          	li	a0,0
     34c:	f91e6ce3          	bltu	t3,a7,2e4 <bishop_move+0x20>
     350:	00371713          	slli	a4,a4,0x3
     354:	00e80733          	add	a4,a6,a4
     358:	00670733          	add	a4,a4,t1
     35c:	00074703          	lbu	a4,0(a4)
     360:	f80712e3          	bnez	a4,2e4 <bishop_move+0x20>
     364:	00378313          	addi	t1,a5,3
     368:	00358713          	addi	a4,a1,3
     36c:	1c660463          	beq	a2,t1,534 <bishop_move+0x270>
     370:	00e368b3          	or	a7,t1,a4
     374:	00700e13          	li	t3,7
     378:	00000513          	li	a0,0
     37c:	f71e44e3          	blt	t3,a7,2e4 <bishop_move+0x20>
     380:	00371713          	slli	a4,a4,0x3
     384:	00e80733          	add	a4,a6,a4
     388:	00670733          	add	a4,a4,t1
     38c:	00074703          	lbu	a4,0(a4)
     390:	f4071ae3          	bnez	a4,2e4 <bishop_move+0x20>
     394:	00478893          	addi	a7,a5,4
     398:	00458713          	addi	a4,a1,4
     39c:	1b160063          	beq	a2,a7,53c <bishop_move+0x278>
     3a0:	00e8e333          	or	t1,a7,a4
     3a4:	00700e13          	li	t3,7
     3a8:	00000513          	li	a0,0
     3ac:	f26e4ce3          	blt	t3,t1,2e4 <bishop_move+0x20>
     3b0:	00371713          	slli	a4,a4,0x3
     3b4:	00e80733          	add	a4,a6,a4
     3b8:	01170733          	add	a4,a4,a7
     3bc:	00074703          	lbu	a4,0(a4)
     3c0:	f20712e3          	bnez	a4,2e4 <bishop_move+0x20>
     3c4:	00578893          	addi	a7,a5,5
     3c8:	00558713          	addi	a4,a1,5
     3cc:	19160863          	beq	a2,a7,55c <bishop_move+0x298>
     3d0:	00e8e333          	or	t1,a7,a4
     3d4:	00700e13          	li	t3,7
     3d8:	00000513          	li	a0,0
     3dc:	f06e44e3          	blt	t3,t1,2e4 <bishop_move+0x20>
     3e0:	00371713          	slli	a4,a4,0x3
     3e4:	00e80733          	add	a4,a6,a4
     3e8:	01170733          	add	a4,a4,a7
     3ec:	00074703          	lbu	a4,0(a4)
     3f0:	ee071ae3          	bnez	a4,2e4 <bishop_move+0x20>
     3f4:	00678893          	addi	a7,a5,6
     3f8:	00658713          	addi	a4,a1,6
     3fc:	15160c63          	beq	a2,a7,554 <bishop_move+0x290>
     400:	00e8e333          	or	t1,a7,a4
     404:	00700e13          	li	t3,7
     408:	00000513          	li	a0,0
     40c:	ec6e4ce3          	blt	t3,t1,2e4 <bishop_move+0x20>
     410:	00371713          	slli	a4,a4,0x3
     414:	00e80733          	add	a4,a6,a4
     418:	01170733          	add	a4,a4,a7
     41c:	00074703          	lbu	a4,0(a4)
     420:	ec0712e3          	bnez	a4,2e4 <bishop_move+0x20>
     424:	00778893          	addi	a7,a5,7
     428:	00758713          	addi	a4,a1,7
     42c:	13160063          	beq	a2,a7,54c <bishop_move+0x288>
     430:	00e8e333          	or	t1,a7,a4
     434:	00700e13          	li	t3,7
     438:	00000513          	li	a0,0
     43c:	ea6e44e3          	blt	t3,t1,2e4 <bishop_move+0x20>
     440:	00371713          	slli	a4,a4,0x3
     444:	00e80733          	add	a4,a6,a4
     448:	01170733          	add	a4,a4,a7
     44c:	00074703          	lbu	a4,0(a4)
     450:	e8071ae3          	bnez	a4,2e4 <bishop_move+0x20>
     454:	00878893          	addi	a7,a5,8
     458:	00858713          	addi	a4,a1,8
     45c:	0f160463          	beq	a2,a7,544 <bishop_move+0x280>
     460:	00e8e333          	or	t1,a7,a4
     464:	00700e13          	li	t3,7
     468:	00000513          	li	a0,0
     46c:	e66e4ce3          	blt	t3,t1,2e4 <bishop_move+0x20>
     470:	00371713          	slli	a4,a4,0x3
     474:	00e80733          	add	a4,a6,a4
     478:	01170733          	add	a4,a4,a7
     47c:	00074703          	lbu	a4,0(a4)
     480:	e60712e3          	bnez	a4,2e4 <bishop_move+0x20>
     484:	00978793          	addi	a5,a5,9
     488:	e4f61ee3          	bne	a2,a5,2e4 <bishop_move+0x20>
     48c:	00958513          	addi	a0,a1,9
     490:	40d50533          	sub	a0,a0,a3
     494:	00153513          	seqz	a0,a0
     498:	00008067          	ret
     49c:	00f62733          	slt	a4,a2,a5
     4a0:	40e00533          	neg	a0,a4
     4a4:	08d5c063          	blt	a1,a3,524 <bishop_move+0x260>
     4a8:	00b6a733          	slt	a4,a3,a1
     4ac:	40e00833          	neg	a6,a4
     4b0:	00a787b3          	add	a5,a5,a0
     4b4:	40e585b3          	sub	a1,a1,a4
     4b8:	00359713          	slli	a4,a1,0x3
     4bc:	000028b7          	lui	a7,0x2
     4c0:	00381313          	slli	t1,a6,0x3
     4c4:	00f70733          	add	a4,a4,a5
     4c8:	53088893          	addi	a7,a7,1328 # 2530 <board>
     4cc:	00a30eb3          	add	t4,t1,a0
     4d0:	01170733          	add	a4,a4,a7
     4d4:	00700f13          	li	t5,7
     4d8:	01d70733          	add	a4,a4,t4
     4dc:	40a708b3          	sub	a7,a4,a0
     4e0:	406888b3          	sub	a7,a7,t1
     4e4:	00b7ee33          	or	t3,a5,a1
     4e8:	02f60463          	beq	a2,a5,510 <bishop_move+0x24c>
     4ec:	01cf6a63          	bltu	t5,t3,500 <bishop_move+0x23c>
     4f0:	0008c883          	lbu	a7,0(a7)
     4f4:	00a787b3          	add	a5,a5,a0
     4f8:	010585b3          	add	a1,a1,a6
     4fc:	fc088ee3          	beqz	a7,4d8 <bishop_move+0x214>
     500:	00000513          	li	a0,0
     504:	00008067          	ret
     508:	e0e690e3          	bne	a3,a4,308 <bishop_move+0x44>
     50c:	0080006f          	j	514 <bishop_move+0x250>
     510:	fcb69ee3          	bne	a3,a1,4ec <bishop_move+0x228>
     514:	00100513          	li	a0,1
     518:	00008067          	ret
     51c:	e2e692e3          	bne	a3,a4,340 <bishop_move+0x7c>
     520:	ff5ff06f          	j	514 <bishop_move+0x250>
     524:	40e787b3          	sub	a5,a5,a4
     528:	00158593          	addi	a1,a1,1
     52c:	00100813          	li	a6,1
     530:	f89ff06f          	j	4b8 <bishop_move+0x1f4>
     534:	e2e69ee3          	bne	a3,a4,370 <bishop_move+0xac>
     538:	fddff06f          	j	514 <bishop_move+0x250>
     53c:	e6e692e3          	bne	a3,a4,3a0 <bishop_move+0xdc>
     540:	fd5ff06f          	j	514 <bishop_move+0x250>
     544:	f0e69ee3          	bne	a3,a4,460 <bishop_move+0x19c>
     548:	fcdff06f          	j	514 <bishop_move+0x250>
     54c:	eee692e3          	bne	a3,a4,430 <bishop_move+0x16c>
     550:	fc5ff06f          	j	514 <bishop_move+0x250>
     554:	eae696e3          	bne	a3,a4,400 <bishop_move+0x13c>
     558:	fbdff06f          	j	514 <bishop_move+0x250>
     55c:	e6e69ae3          	bne	a3,a4,3d0 <bishop_move+0x10c>
     560:	fb5ff06f          	j	514 <bishop_move+0x250>

00000564 <queen_move>:
     564:	40a60833          	sub	a6,a2,a0
     568:	00050793          	mv	a5,a0
     56c:	40b68733          	sub	a4,a3,a1
     570:	02084c63          	bltz	a6,5a8 <queen_move+0x44>
     574:	00074c63          	bltz	a4,58c <queen_move+0x28>
     578:	00f60e63          	beq	a2,a5,594 <queen_move+0x30>
     57c:	04b68063          	beq	a3,a1,5bc <queen_move+0x58>
     580:	00000513          	li	a0,0
     584:	02e80863          	beq	a6,a4,5b4 <queen_move+0x50>
     588:	00008067          	ret
     58c:	40d58733          	sub	a4,a1,a3
     590:	fef616e3          	bne	a2,a5,57c <queen_move+0x18>
     594:	08d5dc63          	bge	a1,a3,62c <queen_move+0xc8>
     598:	00158593          	addi	a1,a1,1
     59c:	00000513          	li	a0,0
     5a0:	00100813          	li	a6,1
     5a4:	0380006f          	j	5dc <queen_move+0x78>
     5a8:	40c50833          	sub	a6,a0,a2
     5ac:	fc0756e3          	bgez	a4,578 <queen_move+0x14>
     5b0:	fddff06f          	j	58c <queen_move+0x28>
     5b4:	00078513          	mv	a0,a5
     5b8:	d0dff06f          	j	2c4 <bishop_move>
     5bc:	00c7ca63          	blt	a5,a2,5d0 <queen_move+0x6c>
     5c0:	fff78793          	addi	a5,a5,-1
     5c4:	fff00513          	li	a0,-1
     5c8:	00000813          	li	a6,0
     5cc:	0100006f          	j	5dc <queen_move+0x78>
     5d0:	00178793          	addi	a5,a5,1
     5d4:	00100513          	li	a0,1
     5d8:	00000813          	li	a6,0
     5dc:	00359713          	slli	a4,a1,0x3
     5e0:	000028b7          	lui	a7,0x2
     5e4:	00381313          	slli	t1,a6,0x3
     5e8:	00f70733          	add	a4,a4,a5
     5ec:	53088893          	addi	a7,a7,1328 # 2530 <board>
     5f0:	00650f33          	add	t5,a0,t1
     5f4:	01170733          	add	a4,a4,a7
     5f8:	00700e93          	li	t4,7
     5fc:	01e70733          	add	a4,a4,t5
     600:	40a708b3          	sub	a7,a4,a0
     604:	406888b3          	sub	a7,a7,t1
     608:	00b7ee33          	or	t3,a5,a1
     60c:	02f60a63          	beq	a2,a5,640 <queen_move+0xdc>
     610:	01ceea63          	bltu	t4,t3,624 <queen_move+0xc0>
     614:	0008c883          	lbu	a7,0(a7)
     618:	00a787b3          	add	a5,a5,a0
     61c:	010585b3          	add	a1,a1,a6
     620:	fc088ee3          	beqz	a7,5fc <queen_move+0x98>
     624:	00000513          	li	a0,0
     628:	00008067          	ret
     62c:	00b6a733          	slt	a4,a3,a1
     630:	40e00833          	neg	a6,a4
     634:	40e585b3          	sub	a1,a1,a4
     638:	00000513          	li	a0,0
     63c:	fa1ff06f          	j	5dc <queen_move+0x78>
     640:	fcb698e3          	bne	a3,a1,610 <queen_move+0xac>
     644:	00100513          	li	a0,1
     648:	00008067          	ret

0000064c <king_in_check>:
     64c:	00153713          	seqz	a4,a0
     650:	40e00733          	neg	a4,a4
     654:	fb010113          	addi	sp,sp,-80
     658:	000027b7          	lui	a5,0x2
     65c:	00677713          	andi	a4,a4,6
     660:	03312e23          	sw	s3,60(sp)
     664:	03512a23          	sw	s5,52(sp)
     668:	03a12023          	sw	s10,32(sp)
     66c:	04112623          	sw	ra,76(sp)
     670:	53078d13          	addi	s10,a5,1328 # 2530 <board>
     674:	03912223          	sw	s9,36(sp)
     678:	00050a93          	mv	s5,a0
     67c:	00670713          	addi	a4,a4,6
     680:	53078793          	addi	a5,a5,1328
     684:	00000993          	li	s3,0
     688:	00800613          	li	a2,8
     68c:	0007c683          	lbu	a3,0(a5)
     690:	06e68463          	beq	a3,a4,6f8 <king_in_check+0xac>
     694:	0017c683          	lbu	a3,1(a5)
     698:	28e68e63          	beq	a3,a4,934 <__heap_size+0x134>
     69c:	0027c683          	lbu	a3,2(a5)
     6a0:	2ae68e63          	beq	a3,a4,95c <__heap_size+0x15c>
     6a4:	0037c683          	lbu	a3,3(a5)
     6a8:	2ce68e63          	beq	a3,a4,984 <__heap_size+0x184>
     6ac:	0047c683          	lbu	a3,4(a5)
     6b0:	2ee68e63          	beq	a3,a4,9ac <__heap_size+0x1ac>
     6b4:	0057c683          	lbu	a3,5(a5)
     6b8:	30e68e63          	beq	a3,a4,9d4 <__heap_size+0x1d4>
     6bc:	0067c683          	lbu	a3,6(a5)
     6c0:	32e68e63          	beq	a3,a4,9fc <__heap_size+0x1fc>
     6c4:	0077c683          	lbu	a3,7(a5)
     6c8:	00878793          	addi	a5,a5,8
     6cc:	34e68c63          	beq	a3,a4,a24 <__heap_size+0x224>
     6d0:	00198993          	addi	s3,s3,1
     6d4:	fac99ce3          	bne	s3,a2,68c <king_in_check+0x40>
     6d8:	04c12083          	lw	ra,76(sp)
     6dc:	03c12983          	lw	s3,60(sp)
     6e0:	03412a83          	lw	s5,52(sp)
     6e4:	02412c83          	lw	s9,36(sp)
     6e8:	02012d03          	lw	s10,32(sp)
     6ec:	00100513          	li	a0,1
     6f0:	05010113          	addi	sp,sp,80
     6f4:	00008067          	ret
     6f8:	04812423          	sw	s0,72(sp)
     6fc:	04912223          	sw	s1,68(sp)
     700:	05212023          	sw	s2,64(sp)
     704:	03412c23          	sw	s4,56(sp)
     708:	03612823          	sw	s6,48(sp)
     70c:	03712623          	sw	s7,44(sp)
     710:	03812423          	sw	s8,40(sp)
     714:	01b12e23          	sw	s11,28(sp)
     718:	00000c93          	li	s9,0
     71c:	413007b3          	neg	a5,s3
     720:	00f12423          	sw	a5,8(sp)
     724:	419007b3          	neg	a5,s9
     728:	00098c13          	mv	s8,s3
     72c:	00000b93          	li	s7,0
     730:	00f12623          	sw	a5,12(sp)
     734:	00700a13          	li	s4,7
     738:	00100b13          	li	s6,1
     73c:	00c12903          	lw	s2,12(sp)
     740:	000c8493          	mv	s1,s9
     744:	00000413          	li	s0,0
     748:	00800d93          	li	s11,8
     74c:	0400006f          	j	78c <king_in_check+0x140>
     750:	13670863          	beq	a4,s6,880 <__heap_size+0x80>
     754:	00400793          	li	a5,4
     758:	16f70e63          	beq	a4,a5,8d4 <__heap_size+0xd4>
     75c:	00200793          	li	a5,2
     760:	14f70063          	beq	a4,a5,8a0 <__heap_size+0xa0>
     764:	00300793          	li	a5,3
     768:	1af70463          	beq	a4,a5,910 <__heap_size+0x110>
     76c:	00500793          	li	a5,5
     770:	18f70263          	beq	a4,a5,8f4 <__heap_size+0xf4>
     774:	00600793          	li	a5,6
     778:	04f70863          	beq	a4,a5,7c8 <king_in_check+0x17c>
     77c:	00140413          	addi	s0,s0,1
     780:	fff48493          	addi	s1,s1,-1
     784:	00190913          	addi	s2,s2,1
     788:	0bb40a63          	beq	s0,s11,83c <__heap_size+0x3c>
     78c:	008d07b3          	add	a5,s10,s0
     790:	0007c703          	lbu	a4,0(a5)
     794:	fe0704e3          	beqz	a4,77c <king_in_check+0x130>
     798:	fa0a8ce3          	beqz	s5,750 <king_in_check+0x104>
     79c:	0f470263          	beq	a4,s4,880 <__heap_size+0x80>
     7a0:	00a00793          	li	a5,10
     7a4:	12f70863          	beq	a4,a5,8d4 <__heap_size+0xd4>
     7a8:	00800793          	li	a5,8
     7ac:	0ef70a63          	beq	a4,a5,8a0 <__heap_size+0xa0>
     7b0:	00900793          	li	a5,9
     7b4:	14f70e63          	beq	a4,a5,910 <__heap_size+0x110>
     7b8:	00b00793          	li	a5,11
     7bc:	12f70c63          	beq	a4,a5,8f4 <__heap_size+0xf4>
     7c0:	00c00793          	li	a5,12
     7c4:	faf71ce3          	bne	a4,a5,77c <king_in_check+0x130>
     7c8:	00048793          	mv	a5,s1
     7cc:	000c0713          	mv	a4,s8
     7d0:	0604c063          	bltz	s1,830 <__heap_size+0x30>
     7d4:	040c4a63          	bltz	s8,828 <__heap_size+0x28>
     7d8:	fafb42e3          	blt	s6,a5,77c <king_in_check+0x130>
     7dc:	faeb40e3          	blt	s6,a4,77c <king_in_check+0x130>
     7e0:	00e7e7b3          	or	a5,a5,a4
     7e4:	f8078ce3          	beqz	a5,77c <king_in_check+0x130>
     7e8:	00100513          	li	a0,1
     7ec:	04812403          	lw	s0,72(sp)
     7f0:	04412483          	lw	s1,68(sp)
     7f4:	04012903          	lw	s2,64(sp)
     7f8:	03812a03          	lw	s4,56(sp)
     7fc:	03012b03          	lw	s6,48(sp)
     800:	02c12b83          	lw	s7,44(sp)
     804:	02812c03          	lw	s8,40(sp)
     808:	01c12d83          	lw	s11,28(sp)
     80c:	04c12083          	lw	ra,76(sp)
     810:	03c12983          	lw	s3,60(sp)
     814:	03412a83          	lw	s5,52(sp)
     818:	02412c83          	lw	s9,36(sp)
     81c:	02012d03          	lw	s10,32(sp)
     820:	05010113          	addi	sp,sp,80
     824:	00008067          	ret
     828:	00812703          	lw	a4,8(sp)
     82c:	fadff06f          	j	7d8 <king_in_check+0x18c>
     830:	00090793          	mv	a5,s2
     834:	fa0c52e3          	bgez	s8,7d8 <king_in_check+0x18c>
     838:	ff1ff06f          	j	828 <__heap_size+0x28>
     83c:	00812783          	lw	a5,8(sp)
     840:	001b8b93          	addi	s7,s7,1
     844:	008d0d13          	addi	s10,s10,8
     848:	00178793          	addi	a5,a5,1
     84c:	00f12423          	sw	a5,8(sp)
     850:	fffc0c13          	addi	s8,s8,-1
     854:	ee8b94e3          	bne	s7,s0,73c <king_in_check+0xf0>
     858:	04812403          	lw	s0,72(sp)
     85c:	04412483          	lw	s1,68(sp)
     860:	04012903          	lw	s2,64(sp)
     864:	03812a03          	lw	s4,56(sp)
     868:	03012b03          	lw	s6,48(sp)
     86c:	02c12b83          	lw	s7,44(sp)
     870:	02812c03          	lw	s8,40(sp)
     874:	01c12d83          	lw	s11,28(sp)
     878:	00000513          	li	a0,0
     87c:	f91ff06f          	j	80c <__heap_size+0xc>
     880:	00098693          	mv	a3,s3
     884:	000c8613          	mv	a2,s9
     888:	000b8593          	mv	a1,s7
     88c:	00040513          	mv	a0,s0
     890:	935ff0ef          	jal	1c4 <pawn_move>
     894:	ee0504e3          	beqz	a0,77c <king_in_check+0x130>
     898:	00100513          	li	a0,1
     89c:	f51ff06f          	j	7ec <king_in_check+0x1a0>
     8a0:	00048513          	mv	a0,s1
     8a4:	000c0793          	mv	a5,s8
     8a8:	0204c263          	bltz	s1,8cc <__heap_size+0xcc>
     8ac:	000c5463          	bgez	s8,8b4 <__heap_size+0xb4>
     8b0:	00812783          	lw	a5,8(sp)
     8b4:	00200713          	li	a4,2
     8b8:	07650a63          	beq	a0,s6,92c <__heap_size+0x12c>
     8bc:	ece510e3          	bne	a0,a4,77c <king_in_check+0x130>
     8c0:	eb679ee3          	bne	a5,s6,77c <king_in_check+0x130>
     8c4:	00100513          	li	a0,1
     8c8:	f25ff06f          	j	7ec <king_in_check+0x1a0>
     8cc:	00090513          	mv	a0,s2
     8d0:	fddff06f          	j	8ac <__heap_size+0xac>
     8d4:	17940c63          	beq	s0,s9,a4c <__heap_size+0x24c>
     8d8:	eb7992e3          	bne	s3,s7,77c <king_in_check+0x130>
     8dc:	1f944063          	blt	s0,s9,abc <__heap_size+0x2bc>
     8e0:	fff40713          	addi	a4,s0,-1
     8e4:	00098793          	mv	a5,s3
     8e8:	fff00513          	li	a0,-1
     8ec:	00000e93          	li	t4,0
     8f0:	1700006f          	j	a60 <__heap_size+0x260>
     8f4:	00098693          	mv	a3,s3
     8f8:	000c8613          	mv	a2,s9
     8fc:	000b8593          	mv	a1,s7
     900:	00040513          	mv	a0,s0
     904:	c61ff0ef          	jal	564 <queen_move>
     908:	e6050ae3          	beqz	a0,77c <king_in_check+0x130>
     90c:	f8dff06f          	j	898 <__heap_size+0x98>
     910:	00098693          	mv	a3,s3
     914:	000c8613          	mv	a2,s9
     918:	000b8593          	mv	a1,s7
     91c:	00040513          	mv	a0,s0
     920:	9a5ff0ef          	jal	2c4 <bishop_move>
     924:	e4050ce3          	beqz	a0,77c <king_in_check+0x130>
     928:	f71ff06f          	j	898 <__heap_size+0x98>
     92c:	e4e798e3          	bne	a5,a4,77c <king_in_check+0x130>
     930:	ebdff06f          	j	7ec <king_in_check+0x1a0>
     934:	04812423          	sw	s0,72(sp)
     938:	04912223          	sw	s1,68(sp)
     93c:	05212023          	sw	s2,64(sp)
     940:	03412c23          	sw	s4,56(sp)
     944:	03612823          	sw	s6,48(sp)
     948:	03712623          	sw	s7,44(sp)
     94c:	03812423          	sw	s8,40(sp)
     950:	01b12e23          	sw	s11,28(sp)
     954:	00100c93          	li	s9,1
     958:	dc5ff06f          	j	71c <king_in_check+0xd0>
     95c:	04812423          	sw	s0,72(sp)
     960:	04912223          	sw	s1,68(sp)
     964:	05212023          	sw	s2,64(sp)
     968:	03412c23          	sw	s4,56(sp)
     96c:	03612823          	sw	s6,48(sp)
     970:	03712623          	sw	s7,44(sp)
     974:	03812423          	sw	s8,40(sp)
     978:	01b12e23          	sw	s11,28(sp)
     97c:	00200c93          	li	s9,2
     980:	d9dff06f          	j	71c <king_in_check+0xd0>
     984:	04812423          	sw	s0,72(sp)
     988:	04912223          	sw	s1,68(sp)
     98c:	05212023          	sw	s2,64(sp)
     990:	03412c23          	sw	s4,56(sp)
     994:	03612823          	sw	s6,48(sp)
     998:	03712623          	sw	s7,44(sp)
     99c:	03812423          	sw	s8,40(sp)
     9a0:	01b12e23          	sw	s11,28(sp)
     9a4:	00300c93          	li	s9,3
     9a8:	d75ff06f          	j	71c <king_in_check+0xd0>
     9ac:	04812423          	sw	s0,72(sp)
     9b0:	04912223          	sw	s1,68(sp)
     9b4:	05212023          	sw	s2,64(sp)
     9b8:	03412c23          	sw	s4,56(sp)
     9bc:	03612823          	sw	s6,48(sp)
     9c0:	03712623          	sw	s7,44(sp)
     9c4:	03812423          	sw	s8,40(sp)
     9c8:	01b12e23          	sw	s11,28(sp)
     9cc:	00400c93          	li	s9,4
     9d0:	d4dff06f          	j	71c <king_in_check+0xd0>
     9d4:	04812423          	sw	s0,72(sp)
     9d8:	04912223          	sw	s1,68(sp)
     9dc:	05212023          	sw	s2,64(sp)
     9e0:	03412c23          	sw	s4,56(sp)
     9e4:	03612823          	sw	s6,48(sp)
     9e8:	03712623          	sw	s7,44(sp)
     9ec:	03812423          	sw	s8,40(sp)
     9f0:	01b12e23          	sw	s11,28(sp)
     9f4:	00500c93          	li	s9,5
     9f8:	d25ff06f          	j	71c <king_in_check+0xd0>
     9fc:	04812423          	sw	s0,72(sp)
     a00:	04912223          	sw	s1,68(sp)
     a04:	05212023          	sw	s2,64(sp)
     a08:	03412c23          	sw	s4,56(sp)
     a0c:	03612823          	sw	s6,48(sp)
     a10:	03712623          	sw	s7,44(sp)
     a14:	03812423          	sw	s8,40(sp)
     a18:	01b12e23          	sw	s11,28(sp)
     a1c:	00600c93          	li	s9,6
     a20:	cfdff06f          	j	71c <king_in_check+0xd0>
     a24:	04812423          	sw	s0,72(sp)
     a28:	04912223          	sw	s1,68(sp)
     a2c:	05212023          	sw	s2,64(sp)
     a30:	03412c23          	sw	s4,56(sp)
     a34:	03612823          	sw	s6,48(sp)
     a38:	03712623          	sw	s7,44(sp)
     a3c:	03812423          	sw	s8,40(sp)
     a40:	01b12e23          	sw	s11,28(sp)
     a44:	00700c93          	li	s9,7
     a48:	cd5ff06f          	j	71c <king_in_check+0xd0>
     a4c:	093bd263          	bge	s7,s3,ad0 <__heap_size+0x2d0>
     a50:	001b8793          	addi	a5,s7,1
     a54:	00040713          	mv	a4,s0
     a58:	00000513          	li	a0,0
     a5c:	00100e93          	li	t4,1
     a60:	00379693          	slli	a3,a5,0x3
     a64:	00002637          	lui	a2,0x2
     a68:	003e9f13          	slli	t5,t4,0x3
     a6c:	00e686b3          	add	a3,a3,a4
     a70:	53060613          	addi	a2,a2,1328 # 2530 <board>
     a74:	01e50fb3          	add	t6,a0,t5
     a78:	00d606b3          	add	a3,a2,a3
     a7c:	00178293          	addi	t0,a5,1
     a80:	20100e13          	li	t3,513
     a84:	005e5e33          	srl	t3,t3,t0
     a88:	001e7e13          	andi	t3,t3,1
     a8c:	00700293          	li	t0,7
     a90:	05970c63          	beq	a4,s9,ae8 <__heap_size+0x2e8>
     a94:	cee2e4e3          	bltu	t0,a4,77c <king_in_check+0x130>
     a98:	01f686b3          	add	a3,a3,t6
     a9c:	40a682b3          	sub	t0,a3,a0
     aa0:	41e282b3          	sub	t0,t0,t5
     aa4:	cc0e1ce3          	bnez	t3,77c <king_in_check+0x130>
     aa8:	0002ce03          	lbu	t3,0(t0)
     aac:	00a70733          	add	a4,a4,a0
     ab0:	01d787b3          	add	a5,a5,t4
     ab4:	fc0e04e3          	beqz	t3,a7c <__heap_size+0x27c>
     ab8:	cc5ff06f          	j	77c <king_in_check+0x130>
     abc:	00140713          	addi	a4,s0,1
     ac0:	00098793          	mv	a5,s3
     ac4:	00100513          	li	a0,1
     ac8:	00000e93          	li	t4,0
     acc:	f95ff06f          	j	a60 <__heap_size+0x260>
     ad0:	0179a7b3          	slt	a5,s3,s7
     ad4:	40f00eb3          	neg	t4,a5
     ad8:	00040713          	mv	a4,s0
     adc:	40fb87b3          	sub	a5,s7,a5
     ae0:	00000513          	li	a0,0
     ae4:	f7dff06f          	j	a60 <__heap_size+0x260>
     ae8:	fb3798e3          	bne	a5,s3,a98 <__heap_size+0x298>
     aec:	cfdff06f          	j	7e8 <king_in_check+0x19c>

00000af0 <legal_move>:
     af0:	00d66833          	or	a6,a2,a3
     af4:	fd010113          	addi	sp,sp,-48
     af8:	00b86833          	or	a6,a6,a1
     afc:	02912223          	sw	s1,36(sp)
     b00:	03212023          	sw	s2,32(sp)
     b04:	00058493          	mv	s1,a1
     b08:	02112623          	sw	ra,44(sp)
     b0c:	00a86833          	or	a6,a6,a0
     b10:	00700593          	li	a1,7
     b14:	00000913          	li	s2,0
     b18:	0f05e463          	bltu	a1,a6,c00 <legal_move+0x110>
     b1c:	02812423          	sw	s0,40(sp)
     b20:	00050413          	mv	s0,a0
     b24:	0ec50a63          	beq	a0,a2,c18 <legal_move+0x128>
     b28:	00070913          	mv	s2,a4
     b2c:	0e070a63          	beqz	a4,c20 <legal_move+0x130>
     b30:	01412c23          	sw	s4,24(sp)
     b34:	00002a37          	lui	s4,0x2
     b38:	01512a23          	sw	s5,20(sp)
     b3c:	530a0a13          	addi	s4,s4,1328 # 2530 <board>
     b40:	00369a93          	slli	s5,a3,0x3
     b44:	015a05b3          	add	a1,s4,s5
     b48:	01312e23          	sw	s3,28(sp)
     b4c:	00c585b3          	add	a1,a1,a2
     b50:	0005c983          	lbu	s3,0(a1)
     b54:	02098c63          	beqz	s3,b8c <legal_move+0x9c>
     b58:	00070513          	mv	a0,a4
     b5c:	00098593          	mv	a1,s3
     b60:	00f12623          	sw	a5,12(sp)
     b64:	00d12423          	sw	a3,8(sp)
     b68:	00c12223          	sw	a2,4(sp)
     b6c:	00e12023          	sw	a4,0(sp)
     b70:	e24ff0ef          	jal	194 <same_color.part.0>
     b74:	00012703          	lw	a4,0(sp)
     b78:	00412603          	lw	a2,4(sp)
     b7c:	00812683          	lw	a3,8(sp)
     b80:	00c12783          	lw	a5,12(sp)
     b84:	00000913          	li	s2,0
     b88:	0e051263          	bnez	a0,c6c <legal_move+0x17c>
     b8c:	08078e63          	beqz	a5,c28 <legal_move+0x138>
     b90:	00100593          	li	a1,1
     b94:	1ab71663          	bne	a4,a1,d40 <legal_move+0x250>
     b98:	00048593          	mv	a1,s1
     b9c:	00040513          	mv	a0,s0
     ba0:	00f12223          	sw	a5,4(sp)
     ba4:	00c12023          	sw	a2,0(sp)
     ba8:	e1cff0ef          	jal	1c4 <pawn_move>
     bac:	00412783          	lw	a5,4(sp)
     bb0:	00012603          	lw	a2,0(sp)
     bb4:	00050913          	mv	s2,a0
     bb8:	0a090a63          	beqz	s2,c6c <legal_move+0x17c>
     bbc:	00349713          	slli	a4,s1,0x3
     bc0:	00ea0733          	add	a4,s4,a4
     bc4:	00870433          	add	s0,a4,s0
     bc8:	00044903          	lbu	s2,0(s0)
     bcc:	015a04b3          	add	s1,s4,s5
     bd0:	00040023          	sb	zero,0(s0)
     bd4:	00c484b3          	add	s1,s1,a2
     bd8:	00078513          	mv	a0,a5
     bdc:	01248023          	sb	s2,0(s1)
     be0:	a6dff0ef          	jal	64c <king_in_check>
     be4:	01240023          	sb	s2,0(s0)
     be8:	01348023          	sb	s3,0(s1)
     bec:	02812403          	lw	s0,40(sp)
     bf0:	01c12983          	lw	s3,28(sp)
     bf4:	01812a03          	lw	s4,24(sp)
     bf8:	01412a83          	lw	s5,20(sp)
     bfc:	00153913          	seqz	s2,a0
     c00:	02c12083          	lw	ra,44(sp)
     c04:	02412483          	lw	s1,36(sp)
     c08:	00090513          	mv	a0,s2
     c0c:	02012903          	lw	s2,32(sp)
     c10:	03010113          	addi	sp,sp,48
     c14:	00008067          	ret
     c18:	00000913          	li	s2,0
     c1c:	f0d496e3          	bne	s1,a3,b28 <legal_move+0x38>
     c20:	02812403          	lw	s0,40(sp)
     c24:	fddff06f          	j	c00 <legal_move+0x110>
     c28:	00700593          	li	a1,7
     c2c:	f6b706e3          	beq	a4,a1,b98 <legal_move+0xa8>
     c30:	00a00593          	li	a1,10
     c34:	08b70c63          	beq	a4,a1,ccc <legal_move+0x1dc>
     c38:	00800593          	li	a1,8
     c3c:	20b71e63          	bne	a4,a1,e58 <legal_move+0x368>
     c40:	408605b3          	sub	a1,a2,s0
     c44:	40968533          	sub	a0,a3,s1
     c48:	0205cc63          	bltz	a1,c80 <legal_move+0x190>
     c4c:	00055463          	bgez	a0,c54 <legal_move+0x164>
     c50:	40d48533          	sub	a0,s1,a3
     c54:	00100693          	li	a3,1
     c58:	02d58863          	beq	a1,a3,c88 <legal_move+0x198>
     c5c:	00200813          	li	a6,2
     c60:	00000913          	li	s2,0
     c64:	01059463          	bne	a1,a6,c6c <legal_move+0x17c>
     c68:	02d50463          	beq	a0,a3,c90 <legal_move+0x1a0>
     c6c:	02812403          	lw	s0,40(sp)
     c70:	01c12983          	lw	s3,28(sp)
     c74:	01812a03          	lw	s4,24(sp)
     c78:	01412a83          	lw	s5,20(sp)
     c7c:	f85ff06f          	j	c00 <legal_move+0x110>
     c80:	40c405b3          	sub	a1,s0,a2
     c84:	fc9ff06f          	j	c4c <legal_move+0x15c>
     c88:	00200693          	li	a3,2
     c8c:	02d51463          	bne	a0,a3,cb4 <legal_move+0x1c4>
     c90:	f20986e3          	beqz	s3,bbc <legal_move+0xcc>
     c94:	00098593          	mv	a1,s3
     c98:	00070513          	mv	a0,a4
     c9c:	00f12223          	sw	a5,4(sp)
     ca0:	00c12023          	sw	a2,0(sp)
     ca4:	cf0ff0ef          	jal	194 <same_color.part.0>
     ca8:	00012603          	lw	a2,0(sp)
     cac:	00412783          	lw	a5,4(sp)
     cb0:	f00506e3          	beqz	a0,bbc <legal_move+0xcc>
     cb4:	02812403          	lw	s0,40(sp)
     cb8:	01c12983          	lw	s3,28(sp)
     cbc:	01812a03          	lw	s4,24(sp)
     cc0:	01412a83          	lw	s5,20(sp)
     cc4:	00000913          	li	s2,0
     cc8:	f39ff06f          	j	c00 <legal_move+0x110>
     ccc:	0ec40863          	beq	s0,a2,dbc <legal_move+0x2cc>
     cd0:	00000913          	li	s2,0
     cd4:	f8d49ce3          	bne	s1,a3,c6c <legal_move+0x17c>
     cd8:	0cc44863          	blt	s0,a2,da8 <legal_move+0x2b8>
     cdc:	fff40513          	addi	a0,s0,-1
     ce0:	00048713          	mv	a4,s1
     ce4:	fff00813          	li	a6,-1
     ce8:	00000893          	li	a7,0
     cec:	00371593          	slli	a1,a4,0x3
     cf0:	00389e93          	slli	t4,a7,0x3
     cf4:	00a585b3          	add	a1,a1,a0
     cf8:	01d80f33          	add	t5,a6,t4
     cfc:	00ba05b3          	add	a1,s4,a1
     d00:	00170e13          	addi	t3,a4,1
     d04:	20100313          	li	t1,513
     d08:	01c35333          	srl	t1,t1,t3
     d0c:	00137313          	andi	t1,t1,1
     d10:	00700e13          	li	t3,7
     d14:	12a60e63          	beq	a2,a0,e50 <legal_move+0x360>
     d18:	f8ae6ee3          	bltu	t3,a0,cb4 <legal_move+0x1c4>
     d1c:	01e585b3          	add	a1,a1,t5
     d20:	41058e33          	sub	t3,a1,a6
     d24:	41de0e33          	sub	t3,t3,t4
     d28:	f80316e3          	bnez	t1,cb4 <legal_move+0x1c4>
     d2c:	000e4303          	lbu	t1,0(t3)
     d30:	01050533          	add	a0,a0,a6
     d34:	01170733          	add	a4,a4,a7
     d38:	fc0304e3          	beqz	t1,d00 <legal_move+0x210>
     d3c:	f79ff06f          	j	cb4 <legal_move+0x1c4>
     d40:	00400593          	li	a1,4
     d44:	f8b704e3          	beq	a4,a1,ccc <legal_move+0x1dc>
     d48:	00200593          	li	a1,2
     d4c:	eeb70ae3          	beq	a4,a1,c40 <legal_move+0x150>
     d50:	00300593          	li	a1,3
     d54:	02b70863          	beq	a4,a1,d84 <legal_move+0x294>
     d58:	00500593          	li	a1,5
     d5c:	06b71c63          	bne	a4,a1,dd4 <legal_move+0x2e4>
     d60:	00048593          	mv	a1,s1
     d64:	00040513          	mv	a0,s0
     d68:	00f12223          	sw	a5,4(sp)
     d6c:	00c12023          	sw	a2,0(sp)
     d70:	ff4ff0ef          	jal	564 <queen_move>
     d74:	00012603          	lw	a2,0(sp)
     d78:	00412783          	lw	a5,4(sp)
     d7c:	00050913          	mv	s2,a0
     d80:	e39ff06f          	j	bb8 <legal_move+0xc8>
     d84:	00048593          	mv	a1,s1
     d88:	00040513          	mv	a0,s0
     d8c:	00f12223          	sw	a5,4(sp)
     d90:	00c12023          	sw	a2,0(sp)
     d94:	d30ff0ef          	jal	2c4 <bishop_move>
     d98:	00012603          	lw	a2,0(sp)
     d9c:	00412783          	lw	a5,4(sp)
     da0:	00050913          	mv	s2,a0
     da4:	e15ff06f          	j	bb8 <legal_move+0xc8>
     da8:	00140513          	addi	a0,s0,1
     dac:	00048713          	mv	a4,s1
     db0:	00100813          	li	a6,1
     db4:	00000893          	li	a7,0
     db8:	f35ff06f          	j	cec <legal_move+0x1fc>
     dbc:	06d4de63          	bge	s1,a3,e38 <legal_move+0x348>
     dc0:	00148713          	addi	a4,s1,1
     dc4:	00040513          	mv	a0,s0
     dc8:	00000813          	li	a6,0
     dcc:	00100893          	li	a7,1
     dd0:	f1dff06f          	j	cec <legal_move+0x1fc>
     dd4:	00600593          	li	a1,6
     dd8:	ecb71ee3          	bne	a4,a1,cb4 <legal_move+0x1c4>
     ddc:	408605b3          	sub	a1,a2,s0
     de0:	40968533          	sub	a0,a3,s1
     de4:	0405c663          	bltz	a1,e30 <legal_move+0x340>
     de8:	00055463          	bgez	a0,df0 <legal_move+0x300>
     dec:	40d48533          	sub	a0,s1,a3
     df0:	00100693          	li	a3,1
     df4:	00000913          	li	s2,0
     df8:	e6b6cae3          	blt	a3,a1,c6c <legal_move+0x17c>
     dfc:	e6a6c8e3          	blt	a3,a0,c6c <legal_move+0x17c>
     e00:	00a5e5b3          	or	a1,a1,a0
     e04:	e60584e3          	beqz	a1,c6c <legal_move+0x17c>
     e08:	da098ae3          	beqz	s3,bbc <legal_move+0xcc>
     e0c:	00098593          	mv	a1,s3
     e10:	00070513          	mv	a0,a4
     e14:	00f12223          	sw	a5,4(sp)
     e18:	00c12023          	sw	a2,0(sp)
     e1c:	b78ff0ef          	jal	194 <same_color.part.0>
     e20:	00012603          	lw	a2,0(sp)
     e24:	00412783          	lw	a5,4(sp)
     e28:	d8050ae3          	beqz	a0,bbc <legal_move+0xcc>
     e2c:	e41ff06f          	j	c6c <legal_move+0x17c>
     e30:	40c405b3          	sub	a1,s0,a2
     e34:	fb5ff06f          	j	de8 <legal_move+0x2f8>
     e38:	0096a733          	slt	a4,a3,s1
     e3c:	40e008b3          	neg	a7,a4
     e40:	00040513          	mv	a0,s0
     e44:	40e48733          	sub	a4,s1,a4
     e48:	00000813          	li	a6,0
     e4c:	ea1ff06f          	j	cec <legal_move+0x1fc>
     e50:	ece696e3          	bne	a3,a4,d1c <legal_move+0x22c>
     e54:	d69ff06f          	j	bbc <legal_move+0xcc>
     e58:	00900593          	li	a1,9
     e5c:	f2b704e3          	beq	a4,a1,d84 <legal_move+0x294>
     e60:	00b00593          	li	a1,11
     e64:	eeb70ee3          	beq	a4,a1,d60 <legal_move+0x270>
     e68:	00c00593          	li	a1,12
     e6c:	f6b708e3          	beq	a4,a1,ddc <legal_move+0x2ec>
     e70:	e45ff06f          	j	cb4 <legal_move+0x1c4>

00000e74 <is_checkmate>:
     e74:	fd010113          	addi	sp,sp,-48
     e78:	01412c23          	sw	s4,24(sp)
     e7c:	02112623          	sw	ra,44(sp)
     e80:	00050a13          	mv	s4,a0
     e84:	fc8ff0ef          	jal	64c <king_in_check>
     e88:	00051a63          	bnez	a0,e9c <is_checkmate+0x28>
     e8c:	02c12083          	lw	ra,44(sp)
     e90:	01812a03          	lw	s4,24(sp)
     e94:	03010113          	addi	sp,sp,48
     e98:	00008067          	ret
     e9c:	01712623          	sw	s7,12(sp)
     ea0:	00002bb7          	lui	s7,0x2
     ea4:	01512a23          	sw	s5,20(sp)
     ea8:	01612823          	sw	s6,16(sp)
     eac:	01812423          	sw	s8,8(sp)
     eb0:	02812423          	sw	s0,40(sp)
     eb4:	02912223          	sw	s1,36(sp)
     eb8:	03212023          	sw	s2,32(sp)
     ebc:	01312e23          	sw	s3,28(sp)
     ec0:	530b8b93          	addi	s7,s7,1328 # 2530 <board>
     ec4:	00000a93          	li	s5,0
     ec8:	00500c13          	li	s8,5
     ecc:	00800b13          	li	s6,8
     ed0:	00000493          	li	s1,0
     ed4:	009b87b3          	add	a5,s7,s1
     ed8:	0007c903          	lbu	s2,0(a5)
     edc:	00090a63          	beqz	s2,ef0 <is_checkmate+0x7c>
     ee0:	020a0663          	beqz	s4,f0c <is_checkmate+0x98>
     ee4:	fff90793          	addi	a5,s2,-1
     ee8:	0ff7f793          	zext.b	a5,a5
     eec:	02fc7663          	bgeu	s8,a5,f18 <is_checkmate+0xa4>
     ef0:	00148493          	addi	s1,s1,1
     ef4:	ff6490e3          	bne	s1,s6,ed4 <is_checkmate+0x60>
     ef8:	001a8a93          	addi	s5,s5,1
     efc:	008b8b93          	addi	s7,s7,8
     f00:	fc9a98e3          	bne	s5,s1,ed0 <is_checkmate+0x5c>
     f04:	00100513          	li	a0,1
     f08:	0a00006f          	j	fa8 <is_checkmate+0x134>
     f0c:	ff990793          	addi	a5,s2,-7
     f10:	0ff7f793          	zext.b	a5,a5
     f14:	fcfc6ee3          	bltu	s8,a5,ef0 <is_checkmate+0x7c>
     f18:	00000993          	li	s3,0
     f1c:	033a8e63          	beq	s5,s3,f58 <is_checkmate+0xe4>
     f20:	00000413          	li	s0,0
     f24:	00040613          	mv	a2,s0
     f28:	000a0793          	mv	a5,s4
     f2c:	00090713          	mv	a4,s2
     f30:	00098693          	mv	a3,s3
     f34:	000a8593          	mv	a1,s5
     f38:	00048513          	mv	a0,s1
     f3c:	bb5ff0ef          	jal	af0 <legal_move>
     f40:	00140413          	addi	s0,s0,1
     f44:	06051063          	bnez	a0,fa4 <is_checkmate+0x130>
     f48:	fd641ee3          	bne	s0,s6,f24 <is_checkmate+0xb0>
     f4c:	00198993          	addi	s3,s3,1
     f50:	fb6980e3          	beq	s3,s6,ef0 <is_checkmate+0x7c>
     f54:	fd3a96e3          	bne	s5,s3,f20 <is_checkmate+0xac>
     f58:	01912223          	sw	s9,4(sp)
     f5c:	00000413          	li	s0,0
     f60:	00800c93          	li	s9,8
     f64:	000a0793          	mv	a5,s4
     f68:	00090713          	mv	a4,s2
     f6c:	00098693          	mv	a3,s3
     f70:	00040613          	mv	a2,s0
     f74:	000a8593          	mv	a1,s5
     f78:	00048513          	mv	a0,s1
     f7c:	00848663          	beq	s1,s0,f88 <is_checkmate+0x114>
     f80:	b71ff0ef          	jal	af0 <legal_move>
     f84:	00051e63          	bnez	a0,fa0 <is_checkmate+0x12c>
     f88:	00140413          	addi	s0,s0,1
     f8c:	fd941ce3          	bne	s0,s9,f64 <is_checkmate+0xf0>
     f90:	00198993          	addi	s3,s3,1
     f94:	00412c83          	lw	s9,4(sp)
     f98:	fb699ee3          	bne	s3,s6,f54 <is_checkmate+0xe0>
     f9c:	f55ff06f          	j	ef0 <is_checkmate+0x7c>
     fa0:	00412c83          	lw	s9,4(sp)
     fa4:	00000513          	li	a0,0
     fa8:	02812403          	lw	s0,40(sp)
     fac:	02c12083          	lw	ra,44(sp)
     fb0:	02412483          	lw	s1,36(sp)
     fb4:	02012903          	lw	s2,32(sp)
     fb8:	01c12983          	lw	s3,28(sp)
     fbc:	01412a83          	lw	s5,20(sp)
     fc0:	01012b03          	lw	s6,16(sp)
     fc4:	00c12b83          	lw	s7,12(sp)
     fc8:	00812c03          	lw	s8,8(sp)
     fcc:	01812a03          	lw	s4,24(sp)
     fd0:	03010113          	addi	sp,sp,48
     fd4:	00008067          	ret

00000fd8 <jtag_uart_putc>:
     fd8:	04000737          	lui	a4,0x4000
     fdc:	04470713          	addi	a4,a4,68 # 4000044 <_stack_end+0x3efae2c>
     fe0:	00072783          	lw	a5,0(a4)
     fe4:	0107d793          	srli	a5,a5,0x10
     fe8:	fe078ce3          	beqz	a5,fe0 <jtag_uart_putc+0x8>
     fec:	040007b7          	lui	a5,0x4000
     ff0:	04a7a023          	sw	a0,64(a5) # 4000040 <_stack_end+0x3efae28>
     ff4:	00008067          	ret

00000ff8 <jtag_uart_puts>:
     ff8:	00054683          	lbu	a3,0(a0)
     ffc:	02068e63          	beqz	a3,1038 <jtag_uart_puts+0x40>
    1000:	04000737          	lui	a4,0x4000
    1004:	04000637          	lui	a2,0x4000
    1008:	00a00593          	li	a1,10
    100c:	04470713          	addi	a4,a4,68 # 4000044 <_stack_end+0x3efae2c>
    1010:	04060613          	addi	a2,a2,64 # 4000040 <_stack_end+0x3efae28>
    1014:	00d00813          	li	a6,13
    1018:	02b68263          	beq	a3,a1,103c <jtag_uart_puts+0x44>
    101c:	00150513          	addi	a0,a0,1
    1020:	00072783          	lw	a5,0(a4)
    1024:	0107d793          	srli	a5,a5,0x10
    1028:	fe078ce3          	beqz	a5,1020 <jtag_uart_puts+0x28>
    102c:	00d62023          	sw	a3,0(a2)
    1030:	00054683          	lbu	a3,0(a0)
    1034:	fe0692e3          	bnez	a3,1018 <jtag_uart_puts+0x20>
    1038:	00008067          	ret
    103c:	00072783          	lw	a5,0(a4)
    1040:	0107d793          	srli	a5,a5,0x10
    1044:	fe078ce3          	beqz	a5,103c <jtag_uart_puts+0x44>
    1048:	01062023          	sw	a6,0(a2)
    104c:	00054683          	lbu	a3,0(a0)
    1050:	fcdff06f          	j	101c <jtag_uart_puts+0x24>

00001054 <jtag_uart_getc_nonblock>:
    1054:	040007b7          	lui	a5,0x4000
    1058:	0407a503          	lw	a0,64(a5) # 4000040 <_stack_end+0x3efae28>
    105c:	01051793          	slli	a5,a0,0x10
    1060:	0007d663          	bgez	a5,106c <jtag_uart_getc_nonblock+0x18>
    1064:	0ff57513          	zext.b	a0,a0
    1068:	00008067          	ret
    106c:	fff00513          	li	a0,-1
    1070:	00008067          	ret

00001074 <jtag_uart_getc_block>:
    1074:	040007b7          	lui	a5,0x4000
    1078:	04078793          	addi	a5,a5,64 # 4000040 <_stack_end+0x3efae28>
    107c:	0007a503          	lw	a0,0(a5)
    1080:	01051713          	slli	a4,a0,0x10
    1084:	fe075ce3          	bgez	a4,107c <jtag_uart_getc_block+0x8>
    1088:	0ff57513          	zext.b	a0,a0
    108c:	00008067          	ret

00001090 <jtag_uart_readline>:
    1090:	04000637          	lui	a2,0x4000
    1094:	04000837          	lui	a6,0x4000
    1098:	00050e13          	mv	t3,a0
    109c:	fff58893          	addi	a7,a1,-1
    10a0:	00000513          	li	a0,0
    10a4:	04060613          	addi	a2,a2,64 # 4000040 <_stack_end+0x3efae28>
    10a8:	00d00593          	li	a1,13
    10ac:	00a00313          	li	t1,10
    10b0:	04480813          	addi	a6,a6,68 # 4000044 <_stack_end+0x3efae2c>
    10b4:	00062783          	lw	a5,0(a2)
    10b8:	01079713          	slli	a4,a5,0x10
    10bc:	fe075ce3          	bgez	a4,10b4 <jtag_uart_readline+0x24>
    10c0:	0ff7f693          	zext.b	a3,a5
    10c4:	feb688e3          	beq	a3,a1,10b4 <jtag_uart_readline+0x24>
    10c8:	02668463          	beq	a3,t1,10f0 <jtag_uart_readline+0x60>
    10cc:	00082703          	lw	a4,0(a6)
    10d0:	01075713          	srli	a4,a4,0x10
    10d4:	fe070ce3          	beqz	a4,10cc <jtag_uart_readline+0x3c>
    10d8:	00d62023          	sw	a3,0(a2)
    10dc:	fd155ce3          	bge	a0,a7,10b4 <jtag_uart_readline+0x24>
    10e0:	00ae0733          	add	a4,t3,a0
    10e4:	00f70023          	sb	a5,0(a4)
    10e8:	00150513          	addi	a0,a0,1
    10ec:	fc9ff06f          	j	10b4 <jtag_uart_readline+0x24>
    10f0:	04000737          	lui	a4,0x4000
    10f4:	04470713          	addi	a4,a4,68 # 4000044 <_stack_end+0x3efae2c>
    10f8:	00072783          	lw	a5,0(a4)
    10fc:	0107d793          	srli	a5,a5,0x10
    1100:	fe078ce3          	beqz	a5,10f8 <jtag_uart_readline+0x68>
    1104:	040007b7          	lui	a5,0x4000
    1108:	04000737          	lui	a4,0x4000
    110c:	00d00693          	li	a3,13
    1110:	04d7a023          	sw	a3,64(a5) # 4000040 <_stack_end+0x3efae28>
    1114:	04470713          	addi	a4,a4,68 # 4000044 <_stack_end+0x3efae2c>
    1118:	00072783          	lw	a5,0(a4)
    111c:	0107d793          	srli	a5,a5,0x10
    1120:	fe078ce3          	beqz	a5,1118 <jtag_uart_readline+0x88>
    1124:	040007b7          	lui	a5,0x4000
    1128:	00a00713          	li	a4,10
    112c:	04e7a023          	sw	a4,64(a5) # 4000040 <_stack_end+0x3efae28>
    1130:	00ae0e33          	add	t3,t3,a0
    1134:	000e0023          	sb	zero,0(t3)
    1138:	00008067          	ret

0000113c <select_tile>:
    113c:	00451793          	slli	a5,a0,0x4
    1140:	40a78533          	sub	a0,a5,a0
    1144:	00151513          	slli	a0,a0,0x1
    1148:	02850713          	addi	a4,a0,40
    114c:	12200793          	li	a5,290
    1150:	08e7e463          	bltu	a5,a4,11d8 <select_tile+0x9c>
    1154:	00459793          	slli	a5,a1,0x4
    1158:	40b787b3          	sub	a5,a5,a1
    115c:	00179793          	slli	a5,a5,0x1
    1160:	0d200693          	li	a3,210
    1164:	06f6ea63          	bltu	a3,a5,11d8 <select_tile+0x9c>
    1168:	000027b7          	lui	a5,0x2
    116c:	58078793          	addi	a5,a5,1408 # 2580 <timeoutcount+0x4>
    1170:	02f585b3          	mul	a1,a1,a5
    1174:	08000837          	lui	a6,0x8000
    1178:	04680813          	addi	a6,a6,70 # 8000046 <_stack_end+0x7efae2e>
    117c:	080007b7          	lui	a5,0x8000
    1180:	000028b7          	lui	a7,0x2
    1184:	fe000693          	li	a3,-32
    1188:	44088893          	addi	a7,a7,1088 # 2440 <get_piece_sprite+0x14>
    118c:	00e58733          	add	a4,a1,a4
    1190:	00e787b3          	add	a5,a5,a4
    1194:	01058833          	add	a6,a1,a6
    1198:	00a80833          	add	a6,a6,a0
    119c:	00078713          	mv	a4,a5
    11a0:	00d70023          	sb	a3,0(a4)
    11a4:	01170633          	add	a2,a4,a7
    11a8:	00d60023          	sb	a3,0(a2)
    11ac:	00170713          	addi	a4,a4,1
    11b0:	ff0718e3          	bne	a4,a6,11a0 <select_tile+0x64>
    11b4:	08002737          	lui	a4,0x8002
    11b8:	5a870713          	addi	a4,a4,1448 # 80025a8 <_stack_end+0x7efd390>
    11bc:	00e585b3          	add	a1,a1,a4
    11c0:	00a58733          	add	a4,a1,a0
    11c4:	fe000693          	li	a3,-32
    11c8:	00d78023          	sb	a3,0(a5) # 8000000 <_stack_end+0x7efade8>
    11cc:	00d78ea3          	sb	a3,29(a5)
    11d0:	14078793          	addi	a5,a5,320
    11d4:	fef71ae3          	bne	a4,a5,11c8 <select_tile+0x8c>
    11d8:	00008067          	ret

000011dc <update_clock_outputs>:
    11dc:	00002637          	lui	a2,0x2
    11e0:	50462783          	lw	a5,1284(a2) # 2504 <seconds_left>
    11e4:	06300713          	li	a4,99
    11e8:	02f75a63          	bge	a4,a5,121c <update_clock_outputs+0x40>
    11ec:	06300793          	li	a5,99
    11f0:	00a00693          	li	a3,10
    11f4:	02d7e733          	rem	a4,a5,a3
    11f8:	00900593          	li	a1,9
    11fc:	02d7c7b3          	div	a5,a5,a3
    1200:	4ce5e863          	bltu	a1,a4,16d0 <update_clock_outputs+0x4f4>
    1204:	000026b7          	lui	a3,0x2
    1208:	00271713          	slli	a4,a4,0x2
    120c:	58068693          	addi	a3,a3,1408 # 2580 <timeoutcount+0x4>
    1210:	00d70733          	add	a4,a4,a3
    1214:	00072703          	lw	a4,0(a4)
    1218:	00070067          	jr	a4
    121c:	fff7c713          	not	a4,a5
    1220:	41f75713          	srai	a4,a4,0x1f
    1224:	00e7f7b3          	and	a5,a5,a4
    1228:	fc9ff06f          	j	11f0 <update_clock_outputs+0x14>
    122c:	04000737          	lui	a4,0x4000
    1230:	09000693          	li	a3,144
    1234:	04d72823          	sw	a3,80(a4) # 4000050 <_stack_end+0x3efae38>
    1238:	00900713          	li	a4,9
    123c:	48f76263          	bltu	a4,a5,16c0 <update_clock_outputs+0x4e4>
    1240:	00002737          	lui	a4,0x2
    1244:	00279793          	slli	a5,a5,0x2
    1248:	5a870713          	addi	a4,a4,1448 # 25a8 <timeoutcount+0x2c>
    124c:	00e787b3          	add	a5,a5,a4
    1250:	0007a783          	lw	a5,0(a5)
    1254:	00078067          	jr	a5
    1258:	040007b7          	lui	a5,0x4000
    125c:	09000713          	li	a4,144
    1260:	06e7a023          	sw	a4,96(a5) # 4000060 <_stack_end+0x3efae48>
    1264:	00002737          	lui	a4,0x2
    1268:	57072783          	lw	a5,1392(a4) # 2570 <zeros.0>
    126c:	00900693          	li	a3,9
    1270:	46f6e863          	bltu	a3,a5,16e0 <update_clock_outputs+0x504>
    1274:	000026b7          	lui	a3,0x2
    1278:	00279793          	slli	a5,a5,0x2
    127c:	5d068693          	addi	a3,a3,1488 # 25d0 <timeoutcount+0x54>
    1280:	00d787b3          	add	a5,a5,a3
    1284:	0007a783          	lw	a5,0(a5)
    1288:	00078067          	jr	a5
    128c:	040007b7          	lui	a5,0x4000
    1290:	08000713          	li	a4,128
    1294:	06e7a023          	sw	a4,96(a5) # 4000060 <_stack_end+0x3efae48>
    1298:	fcdff06f          	j	1264 <update_clock_outputs+0x88>
    129c:	040007b7          	lui	a5,0x4000
    12a0:	0f800713          	li	a4,248
    12a4:	06e7a023          	sw	a4,96(a5) # 4000060 <_stack_end+0x3efae48>
    12a8:	fbdff06f          	j	1264 <update_clock_outputs+0x88>
    12ac:	040007b7          	lui	a5,0x4000
    12b0:	08200713          	li	a4,130
    12b4:	06e7a023          	sw	a4,96(a5) # 4000060 <_stack_end+0x3efae48>
    12b8:	fadff06f          	j	1264 <update_clock_outputs+0x88>
    12bc:	040007b7          	lui	a5,0x4000
    12c0:	09200713          	li	a4,146
    12c4:	06e7a023          	sw	a4,96(a5) # 4000060 <_stack_end+0x3efae48>
    12c8:	f9dff06f          	j	1264 <update_clock_outputs+0x88>
    12cc:	040007b7          	lui	a5,0x4000
    12d0:	09900713          	li	a4,153
    12d4:	06e7a023          	sw	a4,96(a5) # 4000060 <_stack_end+0x3efae48>
    12d8:	f8dff06f          	j	1264 <update_clock_outputs+0x88>
    12dc:	040007b7          	lui	a5,0x4000
    12e0:	0b000713          	li	a4,176
    12e4:	06e7a023          	sw	a4,96(a5) # 4000060 <_stack_end+0x3efae48>
    12e8:	f7dff06f          	j	1264 <update_clock_outputs+0x88>
    12ec:	040007b7          	lui	a5,0x4000
    12f0:	0a400713          	li	a4,164
    12f4:	06e7a023          	sw	a4,96(a5) # 4000060 <_stack_end+0x3efae48>
    12f8:	f6dff06f          	j	1264 <update_clock_outputs+0x88>
    12fc:	040007b7          	lui	a5,0x4000
    1300:	0f900713          	li	a4,249
    1304:	06e7a023          	sw	a4,96(a5) # 4000060 <_stack_end+0x3efae48>
    1308:	f5dff06f          	j	1264 <update_clock_outputs+0x88>
    130c:	04000737          	lui	a4,0x4000
    1310:	0f900693          	li	a3,249
    1314:	04d72823          	sw	a3,80(a4) # 4000050 <_stack_end+0x3efae38>
    1318:	f21ff06f          	j	1238 <update_clock_outputs+0x5c>
    131c:	04000737          	lui	a4,0x4000
    1320:	0a400693          	li	a3,164
    1324:	04d72823          	sw	a3,80(a4) # 4000050 <_stack_end+0x3efae38>
    1328:	f11ff06f          	j	1238 <update_clock_outputs+0x5c>
    132c:	04000737          	lui	a4,0x4000
    1330:	0b000693          	li	a3,176
    1334:	04d72823          	sw	a3,80(a4) # 4000050 <_stack_end+0x3efae38>
    1338:	f01ff06f          	j	1238 <update_clock_outputs+0x5c>
    133c:	04000737          	lui	a4,0x4000
    1340:	09900693          	li	a3,153
    1344:	04d72823          	sw	a3,80(a4) # 4000050 <_stack_end+0x3efae38>
    1348:	ef1ff06f          	j	1238 <update_clock_outputs+0x5c>
    134c:	04000737          	lui	a4,0x4000
    1350:	09200693          	li	a3,146
    1354:	04d72823          	sw	a3,80(a4) # 4000050 <_stack_end+0x3efae38>
    1358:	ee1ff06f          	j	1238 <update_clock_outputs+0x5c>
    135c:	04000737          	lui	a4,0x4000
    1360:	08200693          	li	a3,130
    1364:	04d72823          	sw	a3,80(a4) # 4000050 <_stack_end+0x3efae38>
    1368:	ed1ff06f          	j	1238 <update_clock_outputs+0x5c>
    136c:	04000737          	lui	a4,0x4000
    1370:	0f800693          	li	a3,248
    1374:	04d72823          	sw	a3,80(a4) # 4000050 <_stack_end+0x3efae38>
    1378:	ec1ff06f          	j	1238 <update_clock_outputs+0x5c>
    137c:	04000737          	lui	a4,0x4000
    1380:	08000693          	li	a3,128
    1384:	04d72823          	sw	a3,80(a4) # 4000050 <_stack_end+0x3efae38>
    1388:	eb1ff06f          	j	1238 <update_clock_outputs+0x5c>
    138c:	040007b7          	lui	a5,0x4000
    1390:	08000693          	li	a3,128
    1394:	06d7a823          	sw	a3,112(a5) # 4000070 <_stack_end+0x3efae58>
    1398:	57072783          	lw	a5,1392(a4)
    139c:	00900693          	li	a3,9
    13a0:	36f6e263          	bltu	a3,a5,1704 <update_clock_outputs+0x528>
    13a4:	000026b7          	lui	a3,0x2
    13a8:	00279793          	slli	a5,a5,0x2
    13ac:	5f868693          	addi	a3,a3,1528 # 25f8 <timeoutcount+0x7c>
    13b0:	00d787b3          	add	a5,a5,a3
    13b4:	0007a783          	lw	a5,0(a5)
    13b8:	00078067          	jr	a5
    13bc:	040007b7          	lui	a5,0x4000
    13c0:	08000693          	li	a3,128
    13c4:	08d7a023          	sw	a3,128(a5) # 4000080 <_stack_end+0x3efae68>
    13c8:	57072783          	lw	a5,1392(a4)
    13cc:	00900693          	li	a3,9
    13d0:	32f6e463          	bltu	a3,a5,16f8 <update_clock_outputs+0x51c>
    13d4:	000026b7          	lui	a3,0x2
    13d8:	00279793          	slli	a5,a5,0x2
    13dc:	62068693          	addi	a3,a3,1568 # 2620 <timeoutcount+0xa4>
    13e0:	00d787b3          	add	a5,a5,a3
    13e4:	0007a783          	lw	a5,0(a5)
    13e8:	00078067          	jr	a5
    13ec:	040007b7          	lui	a5,0x4000
    13f0:	08000693          	li	a3,128
    13f4:	08d7a823          	sw	a3,144(a5) # 4000090 <_stack_end+0x3efae78>
    13f8:	57072783          	lw	a5,1392(a4)
    13fc:	00900713          	li	a4,9
    1400:	2ef76663          	bltu	a4,a5,16ec <update_clock_outputs+0x510>
    1404:	00002737          	lui	a4,0x2
    1408:	00279793          	slli	a5,a5,0x2
    140c:	64870713          	addi	a4,a4,1608 # 2648 <timeoutcount+0xcc>
    1410:	00e787b3          	add	a5,a5,a4
    1414:	0007a783          	lw	a5,0(a5)
    1418:	00078067          	jr	a5
    141c:	040007b7          	lui	a5,0x4000
    1420:	08000713          	li	a4,128
    1424:	0ae7a023          	sw	a4,160(a5) # 40000a0 <_stack_end+0x3efae88>
    1428:	50462703          	lw	a4,1284(a2)
    142c:	00a00793          	li	a5,10
    1430:	24e7da63          	bge	a5,a4,1684 <update_clock_outputs+0x4a8>
    1434:	040007b7          	lui	a5,0x4000
    1438:	3ff00713          	li	a4,1023
    143c:	00e7a023          	sw	a4,0(a5) # 4000000 <_stack_end+0x3efade8>
    1440:	00008067          	ret
    1444:	040007b7          	lui	a5,0x4000
    1448:	0f800713          	li	a4,248
    144c:	0ae7a023          	sw	a4,160(a5) # 40000a0 <_stack_end+0x3efae88>
    1450:	fd9ff06f          	j	1428 <update_clock_outputs+0x24c>
    1454:	040007b7          	lui	a5,0x4000
    1458:	08200713          	li	a4,130
    145c:	0ae7a023          	sw	a4,160(a5) # 40000a0 <_stack_end+0x3efae88>
    1460:	fc9ff06f          	j	1428 <update_clock_outputs+0x24c>
    1464:	040007b7          	lui	a5,0x4000
    1468:	09200713          	li	a4,146
    146c:	0ae7a023          	sw	a4,160(a5) # 40000a0 <_stack_end+0x3efae88>
    1470:	fb9ff06f          	j	1428 <update_clock_outputs+0x24c>
    1474:	040007b7          	lui	a5,0x4000
    1478:	09900713          	li	a4,153
    147c:	0ae7a023          	sw	a4,160(a5) # 40000a0 <_stack_end+0x3efae88>
    1480:	fa9ff06f          	j	1428 <update_clock_outputs+0x24c>
    1484:	040007b7          	lui	a5,0x4000
    1488:	0b000713          	li	a4,176
    148c:	0ae7a023          	sw	a4,160(a5) # 40000a0 <_stack_end+0x3efae88>
    1490:	f99ff06f          	j	1428 <update_clock_outputs+0x24c>
    1494:	040007b7          	lui	a5,0x4000
    1498:	0a400713          	li	a4,164
    149c:	0ae7a023          	sw	a4,160(a5) # 40000a0 <_stack_end+0x3efae88>
    14a0:	f89ff06f          	j	1428 <update_clock_outputs+0x24c>
    14a4:	040007b7          	lui	a5,0x4000
    14a8:	0f900713          	li	a4,249
    14ac:	0ae7a023          	sw	a4,160(a5) # 40000a0 <_stack_end+0x3efae88>
    14b0:	f79ff06f          	j	1428 <update_clock_outputs+0x24c>
    14b4:	040007b7          	lui	a5,0x4000
    14b8:	0c000713          	li	a4,192
    14bc:	0ae7a023          	sw	a4,160(a5) # 40000a0 <_stack_end+0x3efae88>
    14c0:	f69ff06f          	j	1428 <update_clock_outputs+0x24c>
    14c4:	040007b7          	lui	a5,0x4000
    14c8:	09000713          	li	a4,144
    14cc:	0ae7a023          	sw	a4,160(a5) # 40000a0 <_stack_end+0x3efae88>
    14d0:	f59ff06f          	j	1428 <update_clock_outputs+0x24c>
    14d4:	040007b7          	lui	a5,0x4000
    14d8:	0f800693          	li	a3,248
    14dc:	08d7a823          	sw	a3,144(a5) # 4000090 <_stack_end+0x3efae78>
    14e0:	f19ff06f          	j	13f8 <update_clock_outputs+0x21c>
    14e4:	040007b7          	lui	a5,0x4000
    14e8:	08200693          	li	a3,130
    14ec:	08d7a823          	sw	a3,144(a5) # 4000090 <_stack_end+0x3efae78>
    14f0:	f09ff06f          	j	13f8 <update_clock_outputs+0x21c>
    14f4:	040007b7          	lui	a5,0x4000
    14f8:	09200693          	li	a3,146
    14fc:	08d7a823          	sw	a3,144(a5) # 4000090 <_stack_end+0x3efae78>
    1500:	ef9ff06f          	j	13f8 <update_clock_outputs+0x21c>
    1504:	040007b7          	lui	a5,0x4000
    1508:	09900693          	li	a3,153
    150c:	08d7a823          	sw	a3,144(a5) # 4000090 <_stack_end+0x3efae78>
    1510:	ee9ff06f          	j	13f8 <update_clock_outputs+0x21c>
    1514:	040007b7          	lui	a5,0x4000
    1518:	0b000693          	li	a3,176
    151c:	08d7a823          	sw	a3,144(a5) # 4000090 <_stack_end+0x3efae78>
    1520:	ed9ff06f          	j	13f8 <update_clock_outputs+0x21c>
    1524:	040007b7          	lui	a5,0x4000
    1528:	0a400693          	li	a3,164
    152c:	08d7a823          	sw	a3,144(a5) # 4000090 <_stack_end+0x3efae78>
    1530:	ec9ff06f          	j	13f8 <update_clock_outputs+0x21c>
    1534:	040007b7          	lui	a5,0x4000
    1538:	0f900693          	li	a3,249
    153c:	08d7a823          	sw	a3,144(a5) # 4000090 <_stack_end+0x3efae78>
    1540:	eb9ff06f          	j	13f8 <update_clock_outputs+0x21c>
    1544:	040007b7          	lui	a5,0x4000
    1548:	0c000693          	li	a3,192
    154c:	08d7a823          	sw	a3,144(a5) # 4000090 <_stack_end+0x3efae78>
    1550:	ea9ff06f          	j	13f8 <update_clock_outputs+0x21c>
    1554:	040007b7          	lui	a5,0x4000
    1558:	09000693          	li	a3,144
    155c:	08d7a823          	sw	a3,144(a5) # 4000090 <_stack_end+0x3efae78>
    1560:	e99ff06f          	j	13f8 <update_clock_outputs+0x21c>
    1564:	040007b7          	lui	a5,0x4000
    1568:	0f800693          	li	a3,248
    156c:	08d7a023          	sw	a3,128(a5) # 4000080 <_stack_end+0x3efae68>
    1570:	e59ff06f          	j	13c8 <update_clock_outputs+0x1ec>
    1574:	040007b7          	lui	a5,0x4000
    1578:	08200693          	li	a3,130
    157c:	08d7a023          	sw	a3,128(a5) # 4000080 <_stack_end+0x3efae68>
    1580:	e49ff06f          	j	13c8 <update_clock_outputs+0x1ec>
    1584:	040007b7          	lui	a5,0x4000
    1588:	09200693          	li	a3,146
    158c:	08d7a023          	sw	a3,128(a5) # 4000080 <_stack_end+0x3efae68>
    1590:	e39ff06f          	j	13c8 <update_clock_outputs+0x1ec>
    1594:	040007b7          	lui	a5,0x4000
    1598:	09900693          	li	a3,153
    159c:	08d7a023          	sw	a3,128(a5) # 4000080 <_stack_end+0x3efae68>
    15a0:	e29ff06f          	j	13c8 <update_clock_outputs+0x1ec>
    15a4:	040007b7          	lui	a5,0x4000
    15a8:	0b000693          	li	a3,176
    15ac:	08d7a023          	sw	a3,128(a5) # 4000080 <_stack_end+0x3efae68>
    15b0:	e19ff06f          	j	13c8 <update_clock_outputs+0x1ec>
    15b4:	040007b7          	lui	a5,0x4000
    15b8:	0a400693          	li	a3,164
    15bc:	08d7a023          	sw	a3,128(a5) # 4000080 <_stack_end+0x3efae68>
    15c0:	e09ff06f          	j	13c8 <update_clock_outputs+0x1ec>
    15c4:	040007b7          	lui	a5,0x4000
    15c8:	0f900693          	li	a3,249
    15cc:	08d7a023          	sw	a3,128(a5) # 4000080 <_stack_end+0x3efae68>
    15d0:	df9ff06f          	j	13c8 <update_clock_outputs+0x1ec>
    15d4:	040007b7          	lui	a5,0x4000
    15d8:	0c000693          	li	a3,192
    15dc:	08d7a023          	sw	a3,128(a5) # 4000080 <_stack_end+0x3efae68>
    15e0:	de9ff06f          	j	13c8 <update_clock_outputs+0x1ec>
    15e4:	040007b7          	lui	a5,0x4000
    15e8:	09000693          	li	a3,144
    15ec:	08d7a023          	sw	a3,128(a5) # 4000080 <_stack_end+0x3efae68>
    15f0:	dd9ff06f          	j	13c8 <update_clock_outputs+0x1ec>
    15f4:	040007b7          	lui	a5,0x4000
    15f8:	0f800693          	li	a3,248
    15fc:	06d7a823          	sw	a3,112(a5) # 4000070 <_stack_end+0x3efae58>
    1600:	d99ff06f          	j	1398 <update_clock_outputs+0x1bc>
    1604:	040007b7          	lui	a5,0x4000
    1608:	08200693          	li	a3,130
    160c:	06d7a823          	sw	a3,112(a5) # 4000070 <_stack_end+0x3efae58>
    1610:	d89ff06f          	j	1398 <update_clock_outputs+0x1bc>
    1614:	040007b7          	lui	a5,0x4000
    1618:	09200693          	li	a3,146
    161c:	06d7a823          	sw	a3,112(a5) # 4000070 <_stack_end+0x3efae58>
    1620:	d79ff06f          	j	1398 <update_clock_outputs+0x1bc>
    1624:	040007b7          	lui	a5,0x4000
    1628:	09900693          	li	a3,153
    162c:	06d7a823          	sw	a3,112(a5) # 4000070 <_stack_end+0x3efae58>
    1630:	d69ff06f          	j	1398 <update_clock_outputs+0x1bc>
    1634:	040007b7          	lui	a5,0x4000
    1638:	0b000693          	li	a3,176
    163c:	06d7a823          	sw	a3,112(a5) # 4000070 <_stack_end+0x3efae58>
    1640:	d59ff06f          	j	1398 <update_clock_outputs+0x1bc>
    1644:	040007b7          	lui	a5,0x4000
    1648:	0a400693          	li	a3,164
    164c:	06d7a823          	sw	a3,112(a5) # 4000070 <_stack_end+0x3efae58>
    1650:	d49ff06f          	j	1398 <update_clock_outputs+0x1bc>
    1654:	040007b7          	lui	a5,0x4000
    1658:	0f900693          	li	a3,249
    165c:	06d7a823          	sw	a3,112(a5) # 4000070 <_stack_end+0x3efae58>
    1660:	d39ff06f          	j	1398 <update_clock_outputs+0x1bc>
    1664:	040007b7          	lui	a5,0x4000
    1668:	0c000693          	li	a3,192
    166c:	06d7a823          	sw	a3,112(a5) # 4000070 <_stack_end+0x3efae58>
    1670:	d29ff06f          	j	1398 <update_clock_outputs+0x1bc>
    1674:	040007b7          	lui	a5,0x4000
    1678:	09000693          	li	a3,144
    167c:	06d7a823          	sw	a3,112(a5) # 4000070 <_stack_end+0x3efae58>
    1680:	d19ff06f          	j	1398 <update_clock_outputs+0x1bc>
    1684:	50462783          	lw	a5,1284(a2)
    1688:	0207c663          	bltz	a5,16b4 <update_clock_outputs+0x4d8>
    168c:	50462783          	lw	a5,1284(a2)
    1690:	00078c63          	beqz	a5,16a8 <update_clock_outputs+0x4cc>
    1694:	50462703          	lw	a4,1284(a2)
    1698:	fff00793          	li	a5,-1
    169c:	00e797b3          	sll	a5,a5,a4
    16a0:	fff7c793          	not	a5,a5
    16a4:	3ff7f793          	andi	a5,a5,1023
    16a8:	04000737          	lui	a4,0x4000
    16ac:	00f72023          	sw	a5,0(a4) # 4000000 <_stack_end+0x3efade8>
    16b0:	00008067          	ret
    16b4:	040007b7          	lui	a5,0x4000
    16b8:	0007a023          	sw	zero,0(a5) # 4000000 <_stack_end+0x3efade8>
    16bc:	00008067          	ret
    16c0:	040007b7          	lui	a5,0x4000
    16c4:	0c000713          	li	a4,192
    16c8:	06e7a023          	sw	a4,96(a5) # 4000060 <_stack_end+0x3efae48>
    16cc:	b99ff06f          	j	1264 <update_clock_outputs+0x88>
    16d0:	04000737          	lui	a4,0x4000
    16d4:	0c000693          	li	a3,192
    16d8:	04d72823          	sw	a3,80(a4) # 4000050 <_stack_end+0x3efae38>
    16dc:	b5dff06f          	j	1238 <update_clock_outputs+0x5c>
    16e0:	040007b7          	lui	a5,0x4000
    16e4:	0607a823          	sw	zero,112(a5) # 4000070 <_stack_end+0x3efae58>
    16e8:	cb1ff06f          	j	1398 <update_clock_outputs+0x1bc>
    16ec:	040007b7          	lui	a5,0x4000
    16f0:	0a07a023          	sw	zero,160(a5) # 40000a0 <_stack_end+0x3efae88>
    16f4:	d35ff06f          	j	1428 <update_clock_outputs+0x24c>
    16f8:	040007b7          	lui	a5,0x4000
    16fc:	0807a823          	sw	zero,144(a5) # 4000090 <_stack_end+0x3efae78>
    1700:	cf9ff06f          	j	13f8 <update_clock_outputs+0x21c>
    1704:	040007b7          	lui	a5,0x4000
    1708:	0807a023          	sw	zero,128(a5) # 4000080 <_stack_end+0x3efae68>
    170c:	cbdff06f          	j	13c8 <update_clock_outputs+0x1ec>

00001710 <redraw_board_and_pieces>:
    1710:	fd010113          	addi	sp,sp,-48
    1714:	08000fb7          	lui	t6,0x8000
    1718:	02112623          	sw	ra,44(sp)
    171c:	02812423          	sw	s0,40(sp)
    1720:	02912223          	sw	s1,36(sp)
    1724:	03212023          	sw	s2,32(sp)
    1728:	01312e23          	sw	s3,28(sp)
    172c:	01412c23          	sw	s4,24(sp)
    1730:	01512a23          	sw	s5,20(sp)
    1734:	01612823          	sw	s6,16(sp)
    1738:	01712623          	sw	s7,12(sp)
    173c:	00000f13          	li	t5,0
    1740:	00000e93          	li	t4,0
    1744:	01e00313          	li	t1,30
    1748:	028f8f93          	addi	t6,t6,40 # 8000028 <_stack_end+0x7efae10>
    174c:	fdb00513          	li	a0,-37
    1750:	0f000713          	li	a4,240
    1754:	04900593          	li	a1,73
    1758:	026ece33          	div	t3,t4,t1
    175c:	00000793          	li	a5,0
    1760:	01ff08b3          	add	a7,t5,t6
    1764:	00f88633          	add	a2,a7,a5
    1768:	0267c833          	div	a6,a5,t1
    176c:	01c80833          	add	a6,a6,t3
    1770:	00187813          	andi	a6,a6,1
    1774:	0e080863          	beqz	a6,1864 <redraw_board_and_pieces+0x154>
    1778:	00b60023          	sb	a1,0(a2)
    177c:	00178793          	addi	a5,a5,1
    1780:	fee792e3          	bne	a5,a4,1764 <redraw_board_and_pieces+0x54>
    1784:	001e8e93          	addi	t4,t4,1
    1788:	140f0f13          	addi	t5,t5,320
    178c:	fcee96e3          	bne	t4,a4,1758 <redraw_board_and_pieces+0x48>
    1790:	080004b7          	lui	s1,0x8000
    1794:	00002b37          	lui	s6,0x2
    1798:	530b0b13          	addi	s6,s6,1328 # 2530 <board>
    179c:	00000a93          	li	s5,0
    17a0:	0e300413          	li	s0,227
    17a4:	02848493          	addi	s1,s1,40 # 8000028 <_stack_end+0x7efae10>
    17a8:	0f000a13          	li	s4,240
    17ac:	002a9b93          	slli	s7,s5,0x2
    17b0:	015b8bb3          	add	s7,s7,s5
    17b4:	006b9b93          	slli	s7,s7,0x6
    17b8:	000b0993          	mv	s3,s6
    17bc:	00000913          	li	s2,0
    17c0:	0100006f          	j	17d0 <redraw_board_and_pieces+0xc0>
    17c4:	01e90913          	addi	s2,s2,30
    17c8:	00198993          	addi	s3,s3,1
    17cc:	07490063          	beq	s2,s4,182c <redraw_board_and_pieces+0x11c>
    17d0:	0009c503          	lbu	a0,0(s3)
    17d4:	fe0508e3          	beqz	a0,17c4 <redraw_board_and_pieces+0xb4>
    17d8:	455000ef          	jal	242c <get_piece_sprite>
    17dc:	00050813          	mv	a6,a0
    17e0:	fe0502e3          	beqz	a0,17c4 <redraw_board_and_pieces+0xb4>
    17e4:	01790533          	add	a0,s2,s7
    17e8:	01e80613          	addi	a2,a6,30
    17ec:	41050533          	sub	a0,a0,a6
    17f0:	3a280813          	addi	a6,a6,930
    17f4:	fe260793          	addi	a5,a2,-30
    17f8:	009505b3          	add	a1,a0,s1
    17fc:	0007c703          	lbu	a4,0(a5)
    1800:	00f586b3          	add	a3,a1,a5
    1804:	00178793          	addi	a5,a5,1
    1808:	00870463          	beq	a4,s0,1810 <redraw_board_and_pieces+0x100>
    180c:	00e68023          	sb	a4,0(a3)
    1810:	fef616e3          	bne	a2,a5,17fc <redraw_board_and_pieces+0xec>
    1814:	01e60613          	addi	a2,a2,30
    1818:	12250513          	addi	a0,a0,290
    181c:	fd061ce3          	bne	a2,a6,17f4 <redraw_board_and_pieces+0xe4>
    1820:	01e90913          	addi	s2,s2,30
    1824:	00198993          	addi	s3,s3,1
    1828:	fb4914e3          	bne	s2,s4,17d0 <redraw_board_and_pieces+0xc0>
    182c:	01ea8a93          	addi	s5,s5,30
    1830:	008b0b13          	addi	s6,s6,8
    1834:	f72a9ce3          	bne	s5,s2,17ac <redraw_board_and_pieces+0x9c>
    1838:	02c12083          	lw	ra,44(sp)
    183c:	02812403          	lw	s0,40(sp)
    1840:	02412483          	lw	s1,36(sp)
    1844:	02012903          	lw	s2,32(sp)
    1848:	01c12983          	lw	s3,28(sp)
    184c:	01812a03          	lw	s4,24(sp)
    1850:	01412a83          	lw	s5,20(sp)
    1854:	01012b03          	lw	s6,16(sp)
    1858:	00c12b83          	lw	s7,12(sp)
    185c:	03010113          	addi	sp,sp,48
    1860:	00008067          	ret
    1864:	00a60023          	sb	a0,0(a2)
    1868:	00178793          	addi	a5,a5,1
    186c:	eee79ce3          	bne	a5,a4,1764 <redraw_board_and_pieces+0x54>
    1870:	001e8e93          	addi	t4,t4,1
    1874:	140f0f13          	addi	t5,t5,320
    1878:	eeee90e3          	bne	t4,a4,1758 <redraw_board_and_pieces+0x48>
    187c:	f15ff06f          	j	1790 <redraw_board_and_pieces+0x80>

00001880 <labinit>:
    1880:	000027b7          	lui	a5,0x2
    1884:	5147a703          	lw	a4,1300(a5) # 2514 <TMR_STATUS>
    1888:	ff010113          	addi	sp,sp,-16
    188c:	000027b7          	lui	a5,0x2
    1890:	00112623          	sw	ra,12(sp)
    1894:	50c7a603          	lw	a2,1292(a5) # 250c <TMR_PERIODL>
    1898:	000027b7          	lui	a5,0x2
    189c:	5087a683          	lw	a3,1288(a5) # 2508 <TMR_PERIODH>
    18a0:	00072023          	sw	zero,0(a4)
    18a4:	0000c7b7          	lui	a5,0xc
    18a8:	00002737          	lui	a4,0x2
    18ac:	51072703          	lw	a4,1296(a4) # 2510 <TMR_CONTROL>
    18b0:	6bf78793          	addi	a5,a5,1727 # c6bf <WSoldier+0x7973>
    18b4:	00f62023          	sw	a5,0(a2)
    18b8:	02d00793          	li	a5,45
    18bc:	00f6a023          	sw	a5,0(a3)
    18c0:	00700793          	li	a5,7
    18c4:	00f72023          	sw	a5,0(a4)
    18c8:	000027b7          	lui	a5,0x2
    18cc:	5607ae23          	sw	zero,1404(a5) # 257c <timeoutcount>
    18d0:	03c00713          	li	a4,60
    18d4:	000027b7          	lui	a5,0x2
    18d8:	50e7a223          	sw	a4,1284(a5) # 2504 <seconds_left>
    18dc:	901ff0ef          	jal	11dc <update_clock_outputs>
    18e0:	000027b7          	lui	a5,0x2
    18e4:	5287a703          	lw	a4,1320(a5) # 2528 <SW_MASK>
    18e8:	000027b7          	lui	a5,0x2
    18ec:	5247a603          	lw	a2,1316(a5) # 2524 <SW_EDGECAP>
    18f0:	000027b7          	lui	a5,0x2
    18f4:	51c7a683          	lw	a3,1308(a5) # 251c <BTN_MASK>
    18f8:	03f00793          	li	a5,63
    18fc:	00f72023          	sw	a5,0(a4)
    1900:	00002737          	lui	a4,0x2
    1904:	51872703          	lw	a4,1304(a4) # 2518 <BTN_EDGECAP>
    1908:	00f62023          	sw	a5,0(a2)
    190c:	00100793          	li	a5,1
    1910:	00c12083          	lw	ra,12(sp)
    1914:	00f6a023          	sw	a5,0(a3)
    1918:	00f72023          	sw	a5,0(a4)
    191c:	01010113          	addi	sp,sp,16
    1920:	855fe06f          	j	174 <enable_interrupt>

00001924 <handle_interrupt>:
    1924:	fb010113          	addi	sp,sp,-80
    1928:	04112623          	sw	ra,76(sp)
    192c:	01000793          	li	a5,16
    1930:	18f50a63          	beq	a0,a5,1ac4 <handle_interrupt+0x1a0>
    1934:	01100793          	li	a5,17
    1938:	0ef50c63          	beq	a0,a5,1a30 <handle_interrupt+0x10c>
    193c:	01200793          	li	a5,18
    1940:	0ef51263          	bne	a0,a5,1a24 <handle_interrupt+0x100>
    1944:	000027b7          	lui	a5,0x2
    1948:	5187a783          	lw	a5,1304(a5) # 2518 <BTN_EDGECAP>
    194c:	00002737          	lui	a4,0x2
    1950:	52072703          	lw	a4,1312(a4) # 2520 <BTN_DATA>
    1954:	0007a683          	lw	a3,0(a5)
    1958:	00d7a023          	sw	a3,0(a5)
    195c:	00072783          	lw	a5,0(a4)
    1960:	0017f793          	andi	a5,a5,1
    1964:	1c078c63          	beqz	a5,1b3c <handle_interrupt+0x218>
    1968:	000027b7          	lui	a5,0x2
    196c:	5787a703          	lw	a4,1400(a5) # 2578 <btn_down>
    1970:	0a071a63          	bnez	a4,1a24 <handle_interrupt+0x100>
    1974:	05212023          	sw	s2,64(sp)
    1978:	00002937          	lui	s2,0x2
    197c:	04812423          	sw	s0,72(sp)
    1980:	50092403          	lw	s0,1280(s2) # 2500 <sel_file>
    1984:	00100713          	li	a4,1
    1988:	56e7ac23          	sw	a4,1400(a5)
    198c:	00700793          	li	a5,7
    1990:	2487e863          	bltu	a5,s0,1be0 <handle_interrupt+0x2bc>
    1994:	03312e23          	sw	s3,60(sp)
    1998:	000029b7          	lui	s3,0x2
    199c:	04912223          	sw	s1,68(sp)
    19a0:	4fc9a483          	lw	s1,1276(s3) # 24fc <sel_rank>
    19a4:	1a97ee63          	bltu	a5,s1,1b60 <handle_interrupt+0x23c>
    19a8:	03412c23          	sw	s4,56(sp)
    19ac:	00002a37          	lui	s4,0x2
    19b0:	574a2783          	lw	a5,1396(s4) # 2574 <piece_selected>
    19b4:	1c079063          	bnez	a5,1b74 <handle_interrupt+0x250>
    19b8:	00002737          	lui	a4,0x2
    19bc:	00349693          	slli	a3,s1,0x3
    19c0:	53070713          	addi	a4,a4,1328 # 2530 <board>
    19c4:	00d70733          	add	a4,a4,a3
    19c8:	00870733          	add	a4,a4,s0
    19cc:	00074703          	lbu	a4,0(a4)
    19d0:	04070063          	beqz	a4,1a10 <handle_interrupt+0xec>
    19d4:	000026b7          	lui	a3,0x2
    19d8:	4f86a683          	lw	a3,1272(a3) # 24f8 <white_to_move>
    19dc:	24068a63          	beqz	a3,1c30 <handle_interrupt+0x30c>
    19e0:	00100693          	li	a3,1
    19e4:	48d70c63          	beq	a4,a3,1e7c <handle_interrupt+0x558>
    19e8:	00400693          	li	a3,4
    19ec:	4cd70463          	beq	a4,a3,1eb4 <handle_interrupt+0x590>
    19f0:	00200693          	li	a3,2
    19f4:	4cd70e63          	beq	a4,a3,1ed0 <handle_interrupt+0x5ac>
    19f8:	00300693          	li	a3,3
    19fc:	52d70c63          	beq	a4,a3,1f34 <handle_interrupt+0x610>
    1a00:	00500693          	li	a3,5
    1a04:	56d70463          	beq	a4,a3,1f6c <handle_interrupt+0x648>
    1a08:	00600693          	li	a3,6
    1a0c:	58d70463          	beq	a4,a3,1f94 <handle_interrupt+0x670>
    1a10:	04812403          	lw	s0,72(sp)
    1a14:	04412483          	lw	s1,68(sp)
    1a18:	04012903          	lw	s2,64(sp)
    1a1c:	03c12983          	lw	s3,60(sp)
    1a20:	03812a03          	lw	s4,56(sp)
    1a24:	04c12083          	lw	ra,76(sp)
    1a28:	05010113          	addi	sp,sp,80
    1a2c:	00008067          	ret
    1a30:	000027b7          	lui	a5,0x2
    1a34:	5247a703          	lw	a4,1316(a5) # 2524 <SW_EDGECAP>
    1a38:	000027b7          	lui	a5,0x2
    1a3c:	52c7a783          	lw	a5,1324(a5) # 252c <SW_DATA>
    1a40:	04812423          	sw	s0,72(sp)
    1a44:	04912223          	sw	s1,68(sp)
    1a48:	05212023          	sw	s2,64(sp)
    1a4c:	03312e23          	sw	s3,60(sp)
    1a50:	03f00693          	li	a3,63
    1a54:	00d72023          	sw	a3,0(a4)
    1a58:	0007a483          	lw	s1,0(a5)
    1a5c:	00002937          	lui	s2,0x2
    1a60:	50092783          	lw	a5,1280(s2) # 2500 <sel_file>
    1a64:	4034d413          	srai	s0,s1,0x3
    1a68:	fff44413          	not	s0,s0
    1a6c:	0074f493          	andi	s1,s1,7
    1a70:	00747413          	andi	s0,s0,7
    1a74:	000029b7          	lui	s3,0x2
    1a78:	00979663          	bne	a5,s1,1a84 <handle_interrupt+0x160>
    1a7c:	4fc9a783          	lw	a5,1276(s3) # 24fc <sel_rank>
    1a80:	0e878063          	beq	a5,s0,1b60 <handle_interrupt+0x23c>
    1a84:	c8dff0ef          	jal	1710 <redraw_board_and_pieces>
    1a88:	000027b7          	lui	a5,0x2
    1a8c:	5747a783          	lw	a5,1396(a5) # 2574 <piece_selected>
    1a90:	0a079c63          	bnez	a5,1b48 <handle_interrupt+0x224>
    1a94:	00040593          	mv	a1,s0
    1a98:	00048513          	mv	a0,s1
    1a9c:	ea0ff0ef          	jal	113c <select_tile>
    1aa0:	04c12083          	lw	ra,76(sp)
    1aa4:	4e89ae23          	sw	s0,1276(s3)
    1aa8:	04812403          	lw	s0,72(sp)
    1aac:	50992023          	sw	s1,1280(s2)
    1ab0:	03c12983          	lw	s3,60(sp)
    1ab4:	04412483          	lw	s1,68(sp)
    1ab8:	04012903          	lw	s2,64(sp)
    1abc:	05010113          	addi	sp,sp,80
    1ac0:	00008067          	ret
    1ac4:	000027b7          	lui	a5,0x2
    1ac8:	5147a783          	lw	a5,1300(a5) # 2514 <TMR_STATUS>
    1acc:	04812423          	sw	s0,72(sp)
    1ad0:	00002437          	lui	s0,0x2
    1ad4:	0007a023          	sw	zero,0(a5)
    1ad8:	57c42783          	lw	a5,1404(s0) # 257c <timeoutcount>
    1adc:	00900713          	li	a4,9
    1ae0:	00178793          	addi	a5,a5,1
    1ae4:	56f42e23          	sw	a5,1404(s0)
    1ae8:	57c42783          	lw	a5,1404(s0)
    1aec:	04f75063          	bge	a4,a5,1b2c <handle_interrupt+0x208>
    1af0:	04912223          	sw	s1,68(sp)
    1af4:	56042e23          	sw	zero,1404(s0)
    1af8:	000024b7          	lui	s1,0x2
    1afc:	5044a783          	lw	a5,1284(s1) # 2504 <seconds_left>
    1b00:	00f05863          	blez	a5,1b10 <handle_interrupt+0x1ec>
    1b04:	5044a783          	lw	a5,1284(s1)
    1b08:	fff78793          	addi	a5,a5,-1
    1b0c:	50f4a223          	sw	a5,1284(s1)
    1b10:	5044a783          	lw	a5,1284(s1)
    1b14:	0cf05c63          	blez	a5,1bec <handle_interrupt+0x2c8>
    1b18:	04812403          	lw	s0,72(sp)
    1b1c:	04412483          	lw	s1,68(sp)
    1b20:	04c12083          	lw	ra,76(sp)
    1b24:	05010113          	addi	sp,sp,80
    1b28:	eb4ff06f          	j	11dc <update_clock_outputs>
    1b2c:	04812403          	lw	s0,72(sp)
    1b30:	04c12083          	lw	ra,76(sp)
    1b34:	05010113          	addi	sp,sp,80
    1b38:	00008067          	ret
    1b3c:	000027b7          	lui	a5,0x2
    1b40:	5607ac23          	sw	zero,1400(a5) # 2578 <btn_down>
    1b44:	ee1ff06f          	j	1a24 <handle_interrupt+0x100>
    1b48:	000027b7          	lui	a5,0x2
    1b4c:	4f07a583          	lw	a1,1264(a5) # 24f0 <src_rank>
    1b50:	000027b7          	lui	a5,0x2
    1b54:	4f47a503          	lw	a0,1268(a5) # 24f4 <src_file>
    1b58:	de4ff0ef          	jal	113c <select_tile>
    1b5c:	f39ff06f          	j	1a94 <handle_interrupt+0x170>
    1b60:	04812403          	lw	s0,72(sp)
    1b64:	04412483          	lw	s1,68(sp)
    1b68:	04012903          	lw	s2,64(sp)
    1b6c:	03c12983          	lw	s3,60(sp)
    1b70:	eb5ff06f          	j	1a24 <handle_interrupt+0x100>
    1b74:	03612823          	sw	s6,48(sp)
    1b78:	00002b37          	lui	s6,0x2
    1b7c:	4f0b2583          	lw	a1,1264(s6) # 24f0 <src_rank>
    1b80:	03512a23          	sw	s5,52(sp)
    1b84:	00002ab7          	lui	s5,0x2
    1b88:	4f4aa503          	lw	a0,1268(s5) # 24f4 <src_file>
    1b8c:	00002937          	lui	s2,0x2
    1b90:	53090913          	addi	s2,s2,1328 # 2530 <board>
    1b94:	00359713          	slli	a4,a1,0x3
    1b98:	00e90733          	add	a4,s2,a4
    1b9c:	000029b7          	lui	s3,0x2
    1ba0:	00a70733          	add	a4,a4,a0
    1ba4:	4f89a783          	lw	a5,1272(s3) # 24f8 <white_to_move>
    1ba8:	00074703          	lbu	a4,0(a4)
    1bac:	00048693          	mv	a3,s1
    1bb0:	00040613          	mv	a2,s0
    1bb4:	f3dfe0ef          	jal	af0 <legal_move>
    1bb8:	1c051e63          	bnez	a0,1d94 <handle_interrupt+0x470>
    1bbc:	560a2a23          	sw	zero,1396(s4)
    1bc0:	04812403          	lw	s0,72(sp)
    1bc4:	04412483          	lw	s1,68(sp)
    1bc8:	04012903          	lw	s2,64(sp)
    1bcc:	03c12983          	lw	s3,60(sp)
    1bd0:	03812a03          	lw	s4,56(sp)
    1bd4:	03412a83          	lw	s5,52(sp)
    1bd8:	03012b03          	lw	s6,48(sp)
    1bdc:	e49ff06f          	j	1a24 <handle_interrupt+0x100>
    1be0:	04812403          	lw	s0,72(sp)
    1be4:	04012903          	lw	s2,64(sp)
    1be8:	e3dff06f          	j	1a24 <handle_interrupt+0x100>
    1bec:	5004a223          	sw	zero,1284(s1)
    1bf0:	decff0ef          	jal	11dc <update_clock_outputs>
    1bf4:	000026b7          	lui	a3,0x2
    1bf8:	4f86a783          	lw	a5,1272(a3) # 24f8 <white_to_move>
    1bfc:	fff00713          	li	a4,-1
    1c00:	03c00613          	li	a2,60
    1c04:	0017b793          	seqz	a5,a5
    1c08:	4ef6ac23          	sw	a5,1272(a3)
    1c0c:	000027b7          	lui	a5,0x2
    1c10:	5607aa23          	sw	zero,1396(a5) # 2574 <piece_selected>
    1c14:	000027b7          	lui	a5,0x2
    1c18:	50c4a223          	sw	a2,1284(s1)
    1c1c:	4ee7aa23          	sw	a4,1268(a5) # 24f4 <src_file>
    1c20:	000027b7          	lui	a5,0x2
    1c24:	4ee7a823          	sw	a4,1264(a5) # 24f0 <src_rank>
    1c28:	56042e23          	sw	zero,1404(s0)
    1c2c:	eedff06f          	j	1b18 <handle_interrupt+0x1f4>
    1c30:	00700693          	li	a3,7
    1c34:	22d70663          	beq	a4,a3,1e60 <handle_interrupt+0x53c>
    1c38:	00a00693          	li	a3,10
    1c3c:	24d70e63          	beq	a4,a3,1e98 <handle_interrupt+0x574>
    1c40:	00800693          	li	a3,8
    1c44:	2ad70463          	beq	a4,a3,1eec <handle_interrupt+0x5c8>
    1c48:	00900693          	li	a3,9
    1c4c:	2cd70663          	beq	a4,a3,1f18 <handle_interrupt+0x5f4>
    1c50:	00b00693          	li	a3,11
    1c54:	2ed70e63          	beq	a4,a3,1f50 <handle_interrupt+0x62c>
    1c58:	00c00693          	li	a3,12
    1c5c:	dad71ae3          	bne	a4,a3,1a10 <handle_interrupt+0xec>
    1c60:	00005837          	lui	a6,0x5
    1c64:	000058b7          	lui	a7,0x5
    1c68:	10880813          	addi	a6,a6,264 # 5108 <WSoldier+0x3bc>
    1c6c:	04200713          	li	a4,66
    1c70:	0e888893          	addi	a7,a7,232 # 50e8 <WSoldier+0x39c>
    1c74:	06b00613          	li	a2,107
    1c78:	00810593          	addi	a1,sp,8
    1c7c:	00078693          	mv	a3,a5
    1c80:	00178793          	addi	a5,a5,1
    1c84:	00f58533          	add	a0,a1,a5
    1c88:	00f885b3          	add	a1,a7,a5
    1c8c:	fee50fa3          	sb	a4,-1(a0)
    1c90:	0005c703          	lbu	a4,0(a1)
    1c94:	fe0712e3          	bnez	a4,1c78 <handle_interrupt+0x354>
    1c98:	03078793          	addi	a5,a5,48
    1c9c:	002787b3          	add	a5,a5,sp
    1ca0:	00268693          	addi	a3,a3,2
    1ca4:	02000713          	li	a4,32
    1ca8:	fce78c23          	sb	a4,-40(a5)
    1cac:	00068793          	mv	a5,a3
    1cb0:	00078513          	mv	a0,a5
    1cb4:	00178793          	addi	a5,a5,1
    1cb8:	40d78733          	sub	a4,a5,a3
    1cbc:	00810593          	addi	a1,sp,8
    1cc0:	00f585b3          	add	a1,a1,a5
    1cc4:	00e80733          	add	a4,a6,a4
    1cc8:	fec58fa3          	sb	a2,-1(a1)
    1ccc:	00074603          	lbu	a2,0(a4)
    1cd0:	fe0610e3          	bnez	a2,1cb0 <handle_interrupt+0x38c>
    1cd4:	00005837          	lui	a6,0x5
    1cd8:	02000613          	li	a2,32
    1cdc:	11080813          	addi	a6,a6,272 # 5110 <WSoldier+0x3c4>
    1ce0:	40a78733          	sub	a4,a5,a0
    1ce4:	00078593          	mv	a1,a5
    1ce8:	00810693          	addi	a3,sp,8
    1cec:	00178793          	addi	a5,a5,1
    1cf0:	00f686b3          	add	a3,a3,a5
    1cf4:	00e80733          	add	a4,a6,a4
    1cf8:	fec68fa3          	sb	a2,-1(a3)
    1cfc:	00074603          	lbu	a2,0(a4)
    1d00:	fe0610e3          	bnez	a2,1ce0 <handle_interrupt+0x3bc>
    1d04:	03078793          	addi	a5,a5,48
    1d08:	002787b3          	add	a5,a5,sp
    1d0c:	06140413          	addi	s0,s0,97
    1d10:	fc878c23          	sb	s0,-40(a5)
    1d14:	03058793          	addi	a5,a1,48
    1d18:	002785b3          	add	a1,a5,sp
    1d1c:	03800793          	li	a5,56
    1d20:	409787b3          	sub	a5,a5,s1
    1d24:	00810513          	addi	a0,sp,8
    1d28:	fcf58d23          	sb	a5,-38(a1)
    1d2c:	00a00793          	li	a5,10
    1d30:	fcf58da3          	sb	a5,-37(a1)
    1d34:	fc058e23          	sb	zero,-36(a1)
    1d38:	ac0ff0ef          	jal	ff8 <jtag_uart_puts>
    1d3c:	4fc9a783          	lw	a5,1276(s3)
    1d40:	50092703          	lw	a4,1280(s2)
    1d44:	000024b7          	lui	s1,0x2
    1d48:	00002437          	lui	s0,0x2
    1d4c:	4ef4a823          	sw	a5,1264(s1) # 24f0 <src_rank>
    1d50:	00100793          	li	a5,1
    1d54:	4ee42a23          	sw	a4,1268(s0) # 24f4 <src_file>
    1d58:	56fa2a23          	sw	a5,1396(s4)
    1d5c:	9b5ff0ef          	jal	1710 <redraw_board_and_pieces>
    1d60:	4f04a583          	lw	a1,1264(s1)
    1d64:	4f442503          	lw	a0,1268(s0)
    1d68:	bd4ff0ef          	jal	113c <select_tile>
    1d6c:	04812403          	lw	s0,72(sp)
    1d70:	4fc9a583          	lw	a1,1276(s3)
    1d74:	50092503          	lw	a0,1280(s2)
    1d78:	04412483          	lw	s1,68(sp)
    1d7c:	04012903          	lw	s2,64(sp)
    1d80:	03c12983          	lw	s3,60(sp)
    1d84:	03812a03          	lw	s4,56(sp)
    1d88:	04c12083          	lw	ra,76(sp)
    1d8c:	05010113          	addi	sp,sp,80
    1d90:	bacff06f          	j	113c <select_tile>
    1d94:	4f0b2783          	lw	a5,1264(s6)
    1d98:	4f4aa603          	lw	a2,1268(s5)
    1d9c:	00379793          	slli	a5,a5,0x3
    1da0:	00f90733          	add	a4,s2,a5
    1da4:	00c70733          	add	a4,a4,a2
    1da8:	00074683          	lbu	a3,0(a4)
    1dac:	02068463          	beqz	a3,1dd4 <handle_interrupt+0x4b0>
    1db0:	00349593          	slli	a1,s1,0x3
    1db4:	00b907b3          	add	a5,s2,a1
    1db8:	00070023          	sb	zero,0(a4)
    1dbc:	008787b3          	add	a5,a5,s0
    1dc0:	00d78023          	sb	a3,0(a5)
    1dc4:	94dff0ef          	jal	1710 <redraw_board_and_pieces>
    1dc8:	00048593          	mv	a1,s1
    1dcc:	00040513          	mv	a0,s0
    1dd0:	b6cff0ef          	jal	113c <select_tile>
    1dd4:	4f89a403          	lw	s0,1272(s3)
    1dd8:	000027b7          	lui	a5,0x2
    1ddc:	03c00713          	li	a4,60
    1de0:	50e7a223          	sw	a4,1284(a5) # 2504 <seconds_left>
    1de4:	00143413          	seqz	s0,s0
    1de8:	000027b7          	lui	a5,0x2
    1dec:	560a2a23          	sw	zero,1396(s4)
    1df0:	4e89ac23          	sw	s0,1272(s3)
    1df4:	5607ae23          	sw	zero,1404(a5) # 257c <timeoutcount>
    1df8:	be4ff0ef          	jal	11dc <update_clock_outputs>
    1dfc:	00040513          	mv	a0,s0
    1e00:	84dfe0ef          	jal	64c <king_in_check>
    1e04:	da050ee3          	beqz	a0,1bc0 <handle_interrupt+0x29c>
    1e08:	4f89a783          	lw	a5,1272(s3)
    1e0c:	0e078e63          	beqz	a5,1f08 <handle_interrupt+0x5e4>
    1e10:	00005537          	lui	a0,0x5
    1e14:	12050513          	addi	a0,a0,288 # 5120 <WSoldier+0x3d4>
    1e18:	9e0ff0ef          	jal	ff8 <jtag_uart_puts>
    1e1c:	4f89a503          	lw	a0,1272(s3)
    1e20:	854ff0ef          	jal	e74 <is_checkmate>
    1e24:	d8050ee3          	beqz	a0,1bc0 <handle_interrupt+0x29c>
    1e28:	4f89a783          	lw	a5,1272(s3)
    1e2c:	14078e63          	beqz	a5,1f88 <handle_interrupt+0x664>
    1e30:	00005537          	lui	a0,0x5
    1e34:	15850513          	addi	a0,a0,344 # 5158 <WSoldier+0x40c>
    1e38:	04812403          	lw	s0,72(sp)
    1e3c:	04412483          	lw	s1,68(sp)
    1e40:	04012903          	lw	s2,64(sp)
    1e44:	03c12983          	lw	s3,60(sp)
    1e48:	03812a03          	lw	s4,56(sp)
    1e4c:	03412a83          	lw	s5,52(sp)
    1e50:	03012b03          	lw	s6,48(sp)
    1e54:	04c12083          	lw	ra,76(sp)
    1e58:	05010113          	addi	sp,sp,80
    1e5c:	99cff06f          	j	ff8 <jtag_uart_puts>
    1e60:	00005837          	lui	a6,0x5
    1e64:	000058b7          	lui	a7,0x5
    1e68:	0d080813          	addi	a6,a6,208 # 50d0 <WSoldier+0x384>
    1e6c:	04200713          	li	a4,66
    1e70:	0e888893          	addi	a7,a7,232 # 50e8 <WSoldier+0x39c>
    1e74:	07000613          	li	a2,112
    1e78:	e01ff06f          	j	1c78 <handle_interrupt+0x354>
    1e7c:	00005837          	lui	a6,0x5
    1e80:	000058b7          	lui	a7,0x5
    1e84:	0d080813          	addi	a6,a6,208 # 50d0 <WSoldier+0x384>
    1e88:	05700713          	li	a4,87
    1e8c:	0d888893          	addi	a7,a7,216 # 50d8 <WSoldier+0x38c>
    1e90:	07000613          	li	a2,112
    1e94:	de5ff06f          	j	1c78 <handle_interrupt+0x354>
    1e98:	00005837          	lui	a6,0x5
    1e9c:	000058b7          	lui	a7,0x5
    1ea0:	0e080813          	addi	a6,a6,224 # 50e0 <WSoldier+0x394>
    1ea4:	04200713          	li	a4,66
    1ea8:	0e888893          	addi	a7,a7,232 # 50e8 <WSoldier+0x39c>
    1eac:	07200613          	li	a2,114
    1eb0:	dc9ff06f          	j	1c78 <handle_interrupt+0x354>
    1eb4:	00005837          	lui	a6,0x5
    1eb8:	000058b7          	lui	a7,0x5
    1ebc:	0e080813          	addi	a6,a6,224 # 50e0 <WSoldier+0x394>
    1ec0:	05700713          	li	a4,87
    1ec4:	0d888893          	addi	a7,a7,216 # 50d8 <WSoldier+0x38c>
    1ec8:	07200613          	li	a2,114
    1ecc:	dadff06f          	j	1c78 <handle_interrupt+0x354>
    1ed0:	00005837          	lui	a6,0x5
    1ed4:	000058b7          	lui	a7,0x5
    1ed8:	0f880813          	addi	a6,a6,248 # 50f8 <WSoldier+0x3ac>
    1edc:	05700713          	li	a4,87
    1ee0:	0d888893          	addi	a7,a7,216 # 50d8 <WSoldier+0x38c>
    1ee4:	06b00613          	li	a2,107
    1ee8:	d91ff06f          	j	1c78 <handle_interrupt+0x354>
    1eec:	00005837          	lui	a6,0x5
    1ef0:	000058b7          	lui	a7,0x5
    1ef4:	0f880813          	addi	a6,a6,248 # 50f8 <WSoldier+0x3ac>
    1ef8:	04200713          	li	a4,66
    1efc:	0e888893          	addi	a7,a7,232 # 50e8 <WSoldier+0x39c>
    1f00:	06b00613          	li	a2,107
    1f04:	d75ff06f          	j	1c78 <handle_interrupt+0x354>
    1f08:	00005537          	lui	a0,0x5
    1f0c:	13c50513          	addi	a0,a0,316 # 513c <WSoldier+0x3f0>
    1f10:	8e8ff0ef          	jal	ff8 <jtag_uart_puts>
    1f14:	f09ff06f          	j	1e1c <handle_interrupt+0x4f8>
    1f18:	00005837          	lui	a6,0x5
    1f1c:	000058b7          	lui	a7,0x5
    1f20:	10080813          	addi	a6,a6,256 # 5100 <WSoldier+0x3b4>
    1f24:	04200713          	li	a4,66
    1f28:	0e888893          	addi	a7,a7,232 # 50e8 <WSoldier+0x39c>
    1f2c:	06200613          	li	a2,98
    1f30:	d49ff06f          	j	1c78 <handle_interrupt+0x354>
    1f34:	00005837          	lui	a6,0x5
    1f38:	000058b7          	lui	a7,0x5
    1f3c:	10080813          	addi	a6,a6,256 # 5100 <WSoldier+0x3b4>
    1f40:	05700713          	li	a4,87
    1f44:	0d888893          	addi	a7,a7,216 # 50d8 <WSoldier+0x38c>
    1f48:	06200613          	li	a2,98
    1f4c:	d2dff06f          	j	1c78 <handle_interrupt+0x354>
    1f50:	00005837          	lui	a6,0x5
    1f54:	000058b7          	lui	a7,0x5
    1f58:	0f080813          	addi	a6,a6,240 # 50f0 <WSoldier+0x3a4>
    1f5c:	04200713          	li	a4,66
    1f60:	0e888893          	addi	a7,a7,232 # 50e8 <WSoldier+0x39c>
    1f64:	07100613          	li	a2,113
    1f68:	d11ff06f          	j	1c78 <handle_interrupt+0x354>
    1f6c:	00005837          	lui	a6,0x5
    1f70:	000058b7          	lui	a7,0x5
    1f74:	0f080813          	addi	a6,a6,240 # 50f0 <WSoldier+0x3a4>
    1f78:	05700713          	li	a4,87
    1f7c:	0d888893          	addi	a7,a7,216 # 50d8 <WSoldier+0x38c>
    1f80:	07100613          	li	a2,113
    1f84:	cf5ff06f          	j	1c78 <handle_interrupt+0x354>
    1f88:	00005537          	lui	a0,0x5
    1f8c:	17450513          	addi	a0,a0,372 # 5174 <WSoldier+0x428>
    1f90:	ea9ff06f          	j	1e38 <handle_interrupt+0x514>
    1f94:	00005837          	lui	a6,0x5
    1f98:	000058b7          	lui	a7,0x5
    1f9c:	10880813          	addi	a6,a6,264 # 5108 <WSoldier+0x3bc>
    1fa0:	05700713          	li	a4,87
    1fa4:	0d888893          	addi	a7,a7,216 # 50d8 <WSoldier+0x38c>
    1fa8:	06b00613          	li	a2,107
    1fac:	ccdff06f          	j	1c78 <handle_interrupt+0x354>

00001fb0 <main>:
    1fb0:	ff010113          	addi	sp,sp,-16
    1fb4:	00112623          	sw	ra,12(sp)
    1fb8:	8c9ff0ef          	jal	1880 <labinit>
    1fbc:	0b091837          	lui	a6,0xb091
    1fc0:	0a081537          	lui	a0,0xa081
    1fc4:	070706b7          	lui	a3,0x7070
    1fc8:	01010737          	lui	a4,0x1010
    1fcc:	050305b7          	lui	a1,0x5030
    1fd0:	04020637          	lui	a2,0x4020
    1fd4:	000027b7          	lui	a5,0x2
    1fd8:	53078793          	addi	a5,a5,1328 # 2530 <board>
    1fdc:	70768693          	addi	a3,a3,1799 # 7070707 <_stack_end+0x6f6b4ef>
    1fe0:	10170713          	addi	a4,a4,257 # 1010101 <_stack_end+0xf0aee9>
    1fe4:	80a80813          	addi	a6,a6,-2038 # b09080a <_stack_end+0xaf8b5f2>
    1fe8:	90c50513          	addi	a0,a0,-1780 # a08090c <_stack_end+0x9f7b6f4>
    1fec:	20458593          	addi	a1,a1,516 # 5030204 <_stack_end+0x4f2afec>
    1ff0:	30660613          	addi	a2,a2,774 # 4020306 <_stack_end+0x3f1b0ee>
    1ff4:	00d7a423          	sw	a3,8(a5)
    1ff8:	00d7a623          	sw	a3,12(a5)
    1ffc:	02e7a823          	sw	a4,48(a5)
    2000:	02e7aa23          	sw	a4,52(a5)
    2004:	0007a823          	sw	zero,16(a5)
    2008:	0007aa23          	sw	zero,20(a5)
    200c:	0007ac23          	sw	zero,24(a5)
    2010:	0007ae23          	sw	zero,28(a5)
    2014:	0207a023          	sw	zero,32(a5)
    2018:	0207a223          	sw	zero,36(a5)
    201c:	0207a423          	sw	zero,40(a5)
    2020:	0207a623          	sw	zero,44(a5)
    2024:	0107a023          	sw	a6,0(a5)
    2028:	00a7a223          	sw	a0,4(a5)
    202c:	02b7ac23          	sw	a1,56(a5)
    2030:	02c7ae23          	sw	a2,60(a5)
    2034:	edcff0ef          	jal	1710 <redraw_board_and_pieces>
    2038:	04000737          	lui	a4,0x4000
    203c:	080006b7          	lui	a3,0x8000
    2040:	040007b7          	lui	a5,0x4000
    2044:	10d72223          	sw	a3,260(a4) # 4000104 <_stack_end+0x3efaeec>
    2048:	1007a023          	sw	zero,256(a5) # 4000100 <_stack_end+0x3efaee8>
    204c:	0000006f          	j	204c <main+0x9c>

00002050 <printc>:
    2050:	04000737          	lui	a4,0x4000
    2054:	04470713          	addi	a4,a4,68 # 4000044 <_stack_end+0x3efae2c>
    2058:	000106b7          	lui	a3,0x10
    205c:	00072783          	lw	a5,0(a4)
    2060:	fed7eee3          	bltu	a5,a3,205c <printc+0xc>
    2064:	040007b7          	lui	a5,0x4000
    2068:	04a7a023          	sw	a0,64(a5) # 4000040 <_stack_end+0x3efae28>
    206c:	00008067          	ret

00002070 <print>:
    2070:	00054603          	lbu	a2,0(a0)
    2074:	02060863          	beqz	a2,20a4 <print+0x34>
    2078:	04000737          	lui	a4,0x4000
    207c:	040005b7          	lui	a1,0x4000
    2080:	04470713          	addi	a4,a4,68 # 4000044 <_stack_end+0x3efae2c>
    2084:	000106b7          	lui	a3,0x10
    2088:	04058593          	addi	a1,a1,64 # 4000040 <_stack_end+0x3efae28>
    208c:	00072783          	lw	a5,0(a4)
    2090:	fed7eee3          	bltu	a5,a3,208c <print+0x1c>
    2094:	00c5a023          	sw	a2,0(a1)
    2098:	00154603          	lbu	a2,1(a0)
    209c:	00150513          	addi	a0,a0,1
    20a0:	fe0616e3          	bnez	a2,208c <print+0x1c>
    20a4:	00008067          	ret

000020a8 <print_dec>:
    20a8:	3b9ad737          	lui	a4,0x3b9ad
    20ac:	040006b7          	lui	a3,0x4000
    20b0:	04000337          	lui	t1,0x4000
    20b4:	00a00593          	li	a1,10
    20b8:	00000793          	li	a5,0
    20bc:	a0070713          	addi	a4,a4,-1536 # 3b9aca00 <_stack_end+0x3b8a77e8>
    20c0:	04468693          	addi	a3,a3,68 # 4000044 <_stack_end+0x3efae2c>
    20c4:	00010637          	lui	a2,0x10
    20c8:	04030313          	addi	t1,t1,64 # 4000040 <_stack_end+0x3efae28>
    20cc:	00a00893          	li	a7,10
    20d0:	04e57063          	bgeu	a0,a4,2110 <print_dec+0x68>
    20d4:	02079e63          	bnez	a5,2110 <print_dec+0x68>
    20d8:	fff58593          	addi	a1,a1,-1
    20dc:	02e57533          	remu	a0,a0,a4
    20e0:	03175733          	divu	a4,a4,a7
    20e4:	fe0596e3          	bnez	a1,20d0 <print_dec+0x28>
    20e8:	02079263          	bnez	a5,210c <print_dec+0x64>
    20ec:	04000737          	lui	a4,0x4000
    20f0:	04470713          	addi	a4,a4,68 # 4000044 <_stack_end+0x3efae2c>
    20f4:	000106b7          	lui	a3,0x10
    20f8:	00072783          	lw	a5,0(a4)
    20fc:	fed7eee3          	bltu	a5,a3,20f8 <print_dec+0x50>
    2100:	040007b7          	lui	a5,0x4000
    2104:	03000713          	li	a4,48
    2108:	04e7a023          	sw	a4,64(a5) # 4000040 <_stack_end+0x3efae28>
    210c:	00008067          	ret
    2110:	02e55833          	divu	a6,a0,a4
    2114:	03080813          	addi	a6,a6,48
    2118:	0ff87813          	zext.b	a6,a6
    211c:	0006a783          	lw	a5,0(a3) # 10000 <WSoldier+0xb2b4>
    2120:	fec7eee3          	bltu	a5,a2,211c <print_dec+0x74>
    2124:	01032023          	sw	a6,0(t1)
    2128:	00100793          	li	a5,1
    212c:	fadff06f          	j	20d8 <print_dec+0x30>

00002130 <print_hex32>:
    2130:	04000737          	lui	a4,0x4000
    2134:	04470713          	addi	a4,a4,68 # 4000044 <_stack_end+0x3efae2c>
    2138:	000106b7          	lui	a3,0x10
    213c:	00072783          	lw	a5,0(a4)
    2140:	fed7eee3          	bltu	a5,a3,213c <print_hex32+0xc>
    2144:	03000693          	li	a3,48
    2148:	040007b7          	lui	a5,0x4000
    214c:	04000737          	lui	a4,0x4000
    2150:	04d7a023          	sw	a3,64(a5) # 4000040 <_stack_end+0x3efae28>
    2154:	04470713          	addi	a4,a4,68 # 4000044 <_stack_end+0x3efae2c>
    2158:	000106b7          	lui	a3,0x10
    215c:	00072783          	lw	a5,0(a4)
    2160:	fed7eee3          	bltu	a5,a3,215c <print_hex32+0x2c>
    2164:	04000837          	lui	a6,0x4000
    2168:	04080813          	addi	a6,a6,64 # 4000040 <_stack_end+0x3efae28>
    216c:	04000737          	lui	a4,0x4000
    2170:	07800793          	li	a5,120
    2174:	00f82023          	sw	a5,0(a6)
    2178:	01c00613          	li	a2,28
    217c:	00900313          	li	t1,9
    2180:	04470713          	addi	a4,a4,68 # 4000044 <_stack_end+0x3efae2c>
    2184:	000106b7          	lui	a3,0x10
    2188:	ffc00893          	li	a7,-4
    218c:	00c557b3          	srl	a5,a0,a2
    2190:	00f7f793          	andi	a5,a5,15
    2194:	03778593          	addi	a1,a5,55
    2198:	00f36463          	bltu	t1,a5,21a0 <print_hex32+0x70>
    219c:	03078593          	addi	a1,a5,48
    21a0:	00072783          	lw	a5,0(a4)
    21a4:	fed7eee3          	bltu	a5,a3,21a0 <print_hex32+0x70>
    21a8:	00b82023          	sw	a1,0(a6)
    21ac:	ffc60613          	addi	a2,a2,-4 # fffc <WSoldier+0xb2b0>
    21b0:	fd161ee3          	bne	a2,a7,218c <print_hex32+0x5c>
    21b4:	00008067          	ret

000021b8 <handle_exception>:
    21b8:	00200793          	li	a5,2
    21bc:	18f80863          	beq	a6,a5,234c <handle_exception+0x194>
    21c0:	00b00793          	li	a5,11
    21c4:	12f80063          	beq	a6,a5,22e4 <handle_exception+0x12c>
    21c8:	04000737          	lui	a4,0x4000
    21cc:	14081463          	bnez	a6,2314 <handle_exception+0x15c>
    21d0:	04000837          	lui	a6,0x4000
    21d4:	00005637          	lui	a2,0x5
    21d8:	19060613          	addi	a2,a2,400 # 5190 <WSoldier+0x444>
    21dc:	00a00593          	li	a1,10
    21e0:	04470713          	addi	a4,a4,68 # 4000044 <_stack_end+0x3efae2c>
    21e4:	000106b7          	lui	a3,0x10
    21e8:	04080813          	addi	a6,a6,64 # 4000040 <_stack_end+0x3efae28>
    21ec:	00072783          	lw	a5,0(a4)
    21f0:	fed7eee3          	bltu	a5,a3,21ec <handle_exception+0x34>
    21f4:	00b82023          	sw	a1,0(a6)
    21f8:	00164583          	lbu	a1,1(a2)
    21fc:	00160613          	addi	a2,a2,1
    2200:	fe0596e3          	bnez	a1,21ec <handle_exception+0x34>
    2204:	04000737          	lui	a4,0x4000
    2208:	04000837          	lui	a6,0x4000
    220c:	00005637          	lui	a2,0x5
    2210:	20460613          	addi	a2,a2,516 # 5204 <WSoldier+0x4b8>
    2214:	04500593          	li	a1,69
    2218:	04470713          	addi	a4,a4,68 # 4000044 <_stack_end+0x3efae2c>
    221c:	000106b7          	lui	a3,0x10
    2220:	04080813          	addi	a6,a6,64 # 4000040 <_stack_end+0x3efae28>
    2224:	00072783          	lw	a5,0(a4)
    2228:	fed7eee3          	bltu	a5,a3,2224 <handle_exception+0x6c>
    222c:	00b82023          	sw	a1,0(a6)
    2230:	00164583          	lbu	a1,1(a2)
    2234:	00160613          	addi	a2,a2,1
    2238:	fe0596e3          	bnez	a1,2224 <handle_exception+0x6c>
    223c:	04000737          	lui	a4,0x4000
    2240:	04470713          	addi	a4,a4,68 # 4000044 <_stack_end+0x3efae2c>
    2244:	000106b7          	lui	a3,0x10
    2248:	00072783          	lw	a5,0(a4)
    224c:	fed7eee3          	bltu	a5,a3,2248 <handle_exception+0x90>
    2250:	03000693          	li	a3,48
    2254:	040007b7          	lui	a5,0x4000
    2258:	04000737          	lui	a4,0x4000
    225c:	04d7a023          	sw	a3,64(a5) # 4000040 <_stack_end+0x3efae28>
    2260:	04470713          	addi	a4,a4,68 # 4000044 <_stack_end+0x3efae2c>
    2264:	000106b7          	lui	a3,0x10
    2268:	00072783          	lw	a5,0(a4)
    226c:	fed7eee3          	bltu	a5,a3,2268 <handle_exception+0xb0>
    2270:	04000837          	lui	a6,0x4000
    2274:	04080813          	addi	a6,a6,64 # 4000040 <_stack_end+0x3efae28>
    2278:	04000737          	lui	a4,0x4000
    227c:	07800793          	li	a5,120
    2280:	00f82023          	sw	a5,0(a6)
    2284:	01c00613          	li	a2,28
    2288:	00900313          	li	t1,9
    228c:	04470713          	addi	a4,a4,68 # 4000044 <_stack_end+0x3efae2c>
    2290:	000106b7          	lui	a3,0x10
    2294:	ffc00893          	li	a7,-4
    2298:	00c557b3          	srl	a5,a0,a2
    229c:	00f7f793          	andi	a5,a5,15
    22a0:	03778593          	addi	a1,a5,55
    22a4:	00f36463          	bltu	t1,a5,22ac <handle_exception+0xf4>
    22a8:	03078593          	addi	a1,a5,48
    22ac:	00072783          	lw	a5,0(a4)
    22b0:	fed7eee3          	bltu	a5,a3,22ac <handle_exception+0xf4>
    22b4:	00b82023          	sw	a1,0(a6)
    22b8:	ffc60613          	addi	a2,a2,-4
    22bc:	fd161ee3          	bne	a2,a7,2298 <handle_exception+0xe0>
    22c0:	04000737          	lui	a4,0x4000
    22c4:	04470713          	addi	a4,a4,68 # 4000044 <_stack_end+0x3efae2c>
    22c8:	000106b7          	lui	a3,0x10
    22cc:	00072783          	lw	a5,0(a4)
    22d0:	fed7eee3          	bltu	a5,a3,22cc <handle_exception+0x114>
    22d4:	040007b7          	lui	a5,0x4000
    22d8:	00a00713          	li	a4,10
    22dc:	04e7a023          	sw	a4,64(a5) # 4000040 <_stack_end+0x3efae28>
    22e0:	0000006f          	j	22e0 <handle_exception+0x128>
    22e4:	00400793          	li	a5,4
    22e8:	0af88063          	beq	a7,a5,2388 <handle_exception+0x1d0>
    22ec:	0d089a63          	bne	a7,a6,23c0 <handle_exception+0x208>
    22f0:	04000737          	lui	a4,0x4000
    22f4:	04470713          	addi	a4,a4,68 # 4000044 <_stack_end+0x3efae2c>
    22f8:	000106b7          	lui	a3,0x10
    22fc:	00072783          	lw	a5,0(a4)
    2300:	fed7eee3          	bltu	a5,a3,22fc <handle_exception+0x144>
    2304:	040007b7          	lui	a5,0x4000
    2308:	0ff57513          	zext.b	a0,a0
    230c:	04a7a023          	sw	a0,64(a5) # 4000040 <_stack_end+0x3efae28>
    2310:	00008067          	ret
    2314:	04000837          	lui	a6,0x4000
    2318:	00005637          	lui	a2,0x5
    231c:	1e460613          	addi	a2,a2,484 # 51e4 <WSoldier+0x498>
    2320:	00a00593          	li	a1,10
    2324:	04470713          	addi	a4,a4,68
    2328:	000106b7          	lui	a3,0x10
    232c:	04080813          	addi	a6,a6,64 # 4000040 <_stack_end+0x3efae28>
    2330:	00072783          	lw	a5,0(a4)
    2334:	fed7eee3          	bltu	a5,a3,2330 <handle_exception+0x178>
    2338:	00b82023          	sw	a1,0(a6)
    233c:	00164583          	lbu	a1,1(a2)
    2340:	00160613          	addi	a2,a2,1
    2344:	fe0596e3          	bnez	a1,2330 <handle_exception+0x178>
    2348:	ebdff06f          	j	2204 <handle_exception+0x4c>
    234c:	04000737          	lui	a4,0x4000
    2350:	04000837          	lui	a6,0x4000
    2354:	00005637          	lui	a2,0x5
    2358:	1c060613          	addi	a2,a2,448 # 51c0 <WSoldier+0x474>
    235c:	00a00593          	li	a1,10
    2360:	04470713          	addi	a4,a4,68 # 4000044 <_stack_end+0x3efae2c>
    2364:	000106b7          	lui	a3,0x10
    2368:	04080813          	addi	a6,a6,64 # 4000040 <_stack_end+0x3efae28>
    236c:	00072783          	lw	a5,0(a4)
    2370:	fed7eee3          	bltu	a5,a3,236c <handle_exception+0x1b4>
    2374:	00b82023          	sw	a1,0(a6)
    2378:	00164583          	lbu	a1,1(a2)
    237c:	00160613          	addi	a2,a2,1
    2380:	fe0596e3          	bnez	a1,236c <handle_exception+0x1b4>
    2384:	e81ff06f          	j	2204 <handle_exception+0x4c>
    2388:	00054603          	lbu	a2,0(a0)
    238c:	02060a63          	beqz	a2,23c0 <handle_exception+0x208>
    2390:	04000737          	lui	a4,0x4000
    2394:	040005b7          	lui	a1,0x4000
    2398:	04470713          	addi	a4,a4,68 # 4000044 <_stack_end+0x3efae2c>
    239c:	000106b7          	lui	a3,0x10
    23a0:	04058593          	addi	a1,a1,64 # 4000040 <_stack_end+0x3efae28>
    23a4:	00072783          	lw	a5,0(a4)
    23a8:	fed7eee3          	bltu	a5,a3,23a4 <handle_exception+0x1ec>
    23ac:	00c5a023          	sw	a2,0(a1)
    23b0:	00154603          	lbu	a2,1(a0)
    23b4:	00150513          	addi	a0,a0,1
    23b8:	fe0616e3          	bnez	a2,23a4 <handle_exception+0x1ec>
    23bc:	00008067          	ret
    23c0:	00008067          	ret

000023c4 <nextprime>:
    23c4:	00200713          	li	a4,2
    23c8:	00050793          	mv	a5,a0
    23cc:	02a74063          	blt	a4,a0,23ec <nextprime+0x28>
    23d0:	00100513          	li	a0,1
    23d4:	00f05a63          	blez	a5,23e8 <nextprime+0x24>
    23d8:	fff78793          	addi	a5,a5,-1
    23dc:	00f037b3          	snez	a5,a5
    23e0:	00278513          	addi	a0,a5,2
    23e4:	00008067          	ret
    23e8:	00008067          	ret
    23ec:	00150793          	addi	a5,a0,1
    23f0:	0017e513          	ori	a0,a5,1
    23f4:	00300613          	li	a2,3
    23f8:	02c567b3          	rem	a5,a0,a2
    23fc:	40155693          	srai	a3,a0,0x1
    2400:	02078263          	beqz	a5,2424 <nextprime+0x60>
    2404:	00268693          	addi	a3,a3,2 # 10002 <WSoldier+0xb2b6>
    2408:	00300793          	li	a5,3
    240c:	00c0006f          	j	2418 <nextprime+0x54>
    2410:	02f56733          	rem	a4,a0,a5
    2414:	00070863          	beqz	a4,2424 <nextprime+0x60>
    2418:	00178793          	addi	a5,a5,1
    241c:	fef69ae3          	bne	a3,a5,2410 <nextprime+0x4c>
    2420:	00008067          	ret
    2424:	00250513          	addi	a0,a0,2
    2428:	fd1ff06f          	j	23f8 <nextprime+0x34>

0000242c <get_piece_sprite>:
    242c:	fff50513          	addi	a0,a0,-1
    2430:	0ff57513          	zext.b	a0,a0
    2434:	00b00793          	li	a5,11
    2438:	00a7ee63          	bltu	a5,a0,2454 <get_piece_sprite+0x28>
    243c:	000027b7          	lui	a5,0x2
    2440:	00251513          	slli	a0,a0,0x2
    2444:	67078793          	addi	a5,a5,1648 # 2670 <CSWTCH.1>
    2448:	00a787b3          	add	a5,a5,a0
    244c:	0007a503          	lw	a0,0(a5)
    2450:	00008067          	ret
    2454:	00000513          	li	a0,0
    2458:	00008067          	ret
