
main.elf:     file format elf32-littleriscv


Disassembly of section .text:

00000000 <_isr_handler>:
       0:	0080006f          	j	8 <_isr_routine>
       4:	1440006f          	j	148 <_start>

00000008 <_isr_routine>:
       8:	f8010113          	addi	sp,sp,-128
       c:	00112023          	sw	ra,0(sp)
      10:	00312423          	sw	gp,8(sp)
      14:	00412623          	sw	tp,12(sp)
      18:	00512823          	sw	t0,16(sp)
      1c:	00612a23          	sw	t1,20(sp)
      20:	00712c23          	sw	t2,24(sp)
      24:	00812e23          	sw	s0,28(sp)
      28:	02912023          	sw	s1,32(sp)
      2c:	02a12223          	sw	a0,36(sp)
      30:	02b12423          	sw	a1,40(sp)
      34:	02c12623          	sw	a2,44(sp)
      38:	02d12823          	sw	a3,48(sp)
      3c:	02e12a23          	sw	a4,52(sp)
      40:	02f12c23          	sw	a5,56(sp)
      44:	03012e23          	sw	a6,60(sp)
      48:	05112023          	sw	a7,64(sp)
      4c:	05212223          	sw	s2,68(sp)
      50:	05312423          	sw	s3,72(sp)
      54:	05412623          	sw	s4,76(sp)
      58:	05512823          	sw	s5,80(sp)
      5c:	05612a23          	sw	s6,84(sp)
      60:	05712c23          	sw	s7,88(sp)
      64:	05812e23          	sw	s8,92(sp)
      68:	07912023          	sw	s9,96(sp)
      6c:	07a12223          	sw	s10,100(sp)
      70:	07b12423          	sw	s11,104(sp)
      74:	07c12623          	sw	t3,108(sp)
      78:	07d12823          	sw	t4,112(sp)
      7c:	07e12a23          	sw	t5,116(sp)
      80:	07f12c23          	sw	t6,120(sp)
      84:	342022f3          	csrr	t0,mcause
      88:	80000337          	lui	t1,0x80000
      8c:	02536463          	bltu	t1,t0,b4 <external_irq>
      90:	00028833          	add	a6,t0,zero
      94:	00b00313          	li	t1,11
      98:	00628463          	beq	t0,t1,a0 <skip_init_args>
      9c:	34102573          	csrr	a0,mepc

000000a0 <skip_init_args>:
      a0:	37c020ef          	jal	241c <handle_exception>
      a4:	341022f3          	csrr	t0,mepc
      a8:	00428293          	addi	t0,t0,4
      ac:	34129073          	csrw	mepc,t0
      b0:	0180006f          	j	c8 <restore>

000000b4 <external_irq>:
      b4:	800002b7          	lui	t0,0x80000
      b8:	fff28293          	addi	t0,t0,-1 # 7fffffff <_stack_end+0x7fefab7f>
      bc:	34202373          	csrr	t1,mcause
      c0:	0062f533          	and	a0,t0,t1
      c4:	1e9010ef          	jal	1aac <handle_interrupt>

000000c8 <restore>:
      c8:	00012083          	lw	ra,0(sp)
      cc:	00812183          	lw	gp,8(sp)
      d0:	00c12203          	lw	tp,12(sp)
      d4:	01012283          	lw	t0,16(sp)
      d8:	01412303          	lw	t1,20(sp)
      dc:	01812383          	lw	t2,24(sp)
      e0:	01c12403          	lw	s0,28(sp)
      e4:	02012483          	lw	s1,32(sp)
      e8:	02412503          	lw	a0,36(sp)
      ec:	02812583          	lw	a1,40(sp)
      f0:	02c12603          	lw	a2,44(sp)
      f4:	03012683          	lw	a3,48(sp)
      f8:	03412703          	lw	a4,52(sp)
      fc:	03812783          	lw	a5,56(sp)
     100:	03c12803          	lw	a6,60(sp)
     104:	04012883          	lw	a7,64(sp)
     108:	04412903          	lw	s2,68(sp)
     10c:	04812983          	lw	s3,72(sp)
     110:	04c12a03          	lw	s4,76(sp)
     114:	05012a83          	lw	s5,80(sp)
     118:	05412b03          	lw	s6,84(sp)
     11c:	05812b83          	lw	s7,88(sp)
     120:	05c12c03          	lw	s8,92(sp)
     124:	06012c83          	lw	s9,96(sp)
     128:	06412d03          	lw	s10,100(sp)
     12c:	06812d83          	lw	s11,104(sp)
     130:	06c12e03          	lw	t3,108(sp)
     134:	07012e83          	lw	t4,112(sp)
     138:	07412f03          	lw	t5,116(sp)
     13c:	07812f83          	lw	t6,120(sp)
     140:	08010113          	addi	sp,sp,128
     144:	30200073          	mret

00000148 <_start>:
     148:	30401073          	csrw	mie,zero
     14c:	00105117          	auipc	sp,0x105
     150:	33410113          	addi	sp,sp,820 # 105480 <_stack_end>
     154:	00003197          	auipc	gp,0x3
     158:	e0018193          	addi	gp,gp,-512 # 2f54 <__global_pointer>
     15c:	00002517          	auipc	a0,0x2
     160:	56450513          	addi	a0,a0,1380 # 26c0 <welcome_msg>
     164:	00400893          	li	a7,4
     168:	00000073          	ecall
     16c:	7dd010ef          	jal	2148 <main>

00000170 <loop>:
     170:	0000006f          	j	170 <loop>

00000174 <enable_interrupt>:
     174:	00000517          	auipc	a0,0x0
     178:	e8c50513          	addi	a0,a0,-372 # 0 <_isr_handler>
     17c:	30551073          	csrw	mtvec,a0
     180:	30486073          	csrsi	mie,16
     184:	3048e073          	csrsi	mie,17
     188:	30496073          	csrsi	mie,18
     18c:	3001e073          	csrsi	mstatus,3
     190:	00008067          	ret

00000194 <same_color.part.0>:
     194:	fff50793          	addi	a5,a0,-1
     198:	00500713          	li	a4,5
     19c:	00f77e63          	bgeu	a4,a5,1b8 <same_color.part.0+0x24>
     1a0:	ff950793          	addi	a5,a0,-7
     1a4:	00000513          	li	a0,0
     1a8:	00f76663          	bltu	a4,a5,1b4 <same_color.part.0+0x20>
     1ac:	ff958593          	addi	a1,a1,-7
     1b0:	0065b513          	sltiu	a0,a1,6
     1b4:	00008067          	ret
     1b8:	fff58593          	addi	a1,a1,-1
     1bc:	0065b513          	sltiu	a0,a1,6
     1c0:	00008067          	ret

000001c4 <pawn_move>:
     1c4:	fff70813          	addi	a6,a4,-1
     1c8:	0ff87813          	zext.b	a6,a6
     1cc:	00500793          	li	a5,5
     1d0:	00050893          	mv	a7,a0
     1d4:	40b68333          	sub	t1,a3,a1
     1d8:	40a60533          	sub	a0,a2,a0
     1dc:	0b07f263          	bgeu	a5,a6,280 <pawn_move+0xbc>
     1e0:	00200e93          	li	t4,2
     1e4:	00200f93          	li	t6,2
     1e8:	00700f13          	li	t5,7
     1ec:	00100e13          	li	t3,1
     1f0:	000027b7          	lui	a5,0x2
     1f4:	79878793          	addi	a5,a5,1944 # 2798 <board>
     1f8:	00369693          	slli	a3,a3,0x3
     1fc:	00d786b3          	add	a3,a5,a3
     200:	00c68633          	add	a2,a3,a2
     204:	00064683          	lbu	a3,0(a2)
     208:	00051863          	bnez	a0,218 <pawn_move+0x54>
     20c:	066e0663          	beq	t3,t1,278 <pawn_move+0xb4>
     210:	09d30263          	beq	t1,t4,294 <pawn_move+0xd0>
     214:	00008067          	ret
     218:	00150513          	addi	a0,a0,1
     21c:	ffd57793          	andi	a5,a0,-3
     220:	00000513          	li	a0,0
     224:	fe0798e3          	bnez	a5,214 <pawn_move+0x50>
     228:	fe6e16e3          	bne	t3,t1,214 <pawn_move+0x50>
     22c:	fe0684e3          	beqz	a3,214 <pawn_move+0x50>
     230:	00100513          	li	a0,1
     234:	fe0700e3          	beqz	a4,214 <pawn_move+0x50>
     238:	ff010113          	addi	sp,sp,-16
     23c:	00068593          	mv	a1,a3
     240:	00070513          	mv	a0,a4
     244:	00112623          	sw	ra,12(sp)
     248:	f4dff0ef          	jal	194 <same_color.part.0>
     24c:	00c12083          	lw	ra,12(sp)
     250:	00153513          	seqz	a0,a0
     254:	01010113          	addi	sp,sp,16
     258:	00008067          	ret
     25c:	00600713          	li	a4,6
     260:	fae59ae3          	bne	a1,a4,214 <pawn_move+0x50>
     264:	003f1f13          	slli	t5,t5,0x3
     268:	01e787b3          	add	a5,a5,t5
     26c:	01178533          	add	a0,a5,a7
     270:	00054783          	lbu	a5,0(a0)
     274:	00f6e6b3          	or	a3,a3,a5
     278:	0016b513          	seqz	a0,a3
     27c:	00008067          	ret
     280:	ffe00e93          	li	t4,-2
     284:	00000f93          	li	t6,0
     288:	00500f13          	li	t5,5
     28c:	fff00e13          	li	t3,-1
     290:	f61ff06f          	j	1f0 <pawn_move+0x2c>
     294:	00500713          	li	a4,5
     298:	fd0772e3          	bgeu	a4,a6,25c <pawn_move+0x98>
     29c:	00100713          	li	a4,1
     2a0:	02e59063          	bne	a1,a4,2c0 <pawn_move+0xfc>
     2a4:	003f9f93          	slli	t6,t6,0x3
     2a8:	01f787b3          	add	a5,a5,t6
     2ac:	01178533          	add	a0,a5,a7
     2b0:	00054783          	lbu	a5,0(a0)
     2b4:	00f6e6b3          	or	a3,a3,a5
     2b8:	0016b513          	seqz	a0,a3
     2bc:	00008067          	ret
     2c0:	00008067          	ret

000002c4 <bishop_move>:
     2c4:	40a60833          	sub	a6,a2,a0
     2c8:	00050793          	mv	a5,a0
     2cc:	40b68733          	sub	a4,a3,a1
     2d0:	00084c63          	bltz	a6,2e8 <bishop_move+0x24>
     2d4:	00075463          	bgez	a4,2dc <bishop_move+0x18>
     2d8:	40d58733          	sub	a4,a1,a3
     2dc:	00000513          	li	a0,0
     2e0:	00e80863          	beq	a6,a4,2f0 <bishop_move+0x2c>
     2e4:	00008067          	ret
     2e8:	40c50833          	sub	a6,a0,a2
     2ec:	fe9ff06f          	j	2d4 <bishop_move+0x10>
     2f0:	1ac7d663          	bge	a5,a2,49c <bishop_move+0x1d8>
     2f4:	00100513          	li	a0,1
     2f8:	1ad5d863          	bge	a1,a3,4a8 <bishop_move+0x1e4>
     2fc:	00178893          	addi	a7,a5,1
     300:	00158713          	addi	a4,a1,1
     304:	21160263          	beq	a2,a7,508 <bishop_move+0x244>
     308:	00e8e833          	or	a6,a7,a4
     30c:	00700313          	li	t1,7
     310:	00000513          	li	a0,0
     314:	fd0368e3          	bltu	t1,a6,2e4 <bishop_move+0x20>
     318:	00002837          	lui	a6,0x2
     31c:	79880813          	addi	a6,a6,1944 # 2798 <board>
     320:	00371713          	slli	a4,a4,0x3
     324:	00e80733          	add	a4,a6,a4
     328:	01170733          	add	a4,a4,a7
     32c:	00074703          	lbu	a4,0(a4)
     330:	fa071ae3          	bnez	a4,2e4 <bishop_move+0x20>
     334:	00278313          	addi	t1,a5,2
     338:	00258713          	addi	a4,a1,2
     33c:	1e660063          	beq	a2,t1,51c <bishop_move+0x258>
     340:	00e368b3          	or	a7,t1,a4
     344:	00700e13          	li	t3,7
     348:	00000513          	li	a0,0
     34c:	f91e6ce3          	bltu	t3,a7,2e4 <bishop_move+0x20>
     350:	00371713          	slli	a4,a4,0x3
     354:	00e80733          	add	a4,a6,a4
     358:	00670733          	add	a4,a4,t1
     35c:	00074703          	lbu	a4,0(a4)
     360:	f80712e3          	bnez	a4,2e4 <bishop_move+0x20>
     364:	00378313          	addi	t1,a5,3
     368:	00358713          	addi	a4,a1,3
     36c:	1c660463          	beq	a2,t1,534 <bishop_move+0x270>
     370:	00e368b3          	or	a7,t1,a4
     374:	00700e13          	li	t3,7
     378:	00000513          	li	a0,0
     37c:	f71e44e3          	blt	t3,a7,2e4 <bishop_move+0x20>
     380:	00371713          	slli	a4,a4,0x3
     384:	00e80733          	add	a4,a6,a4
     388:	00670733          	add	a4,a4,t1
     38c:	00074703          	lbu	a4,0(a4)
     390:	f4071ae3          	bnez	a4,2e4 <bishop_move+0x20>
     394:	00478893          	addi	a7,a5,4
     398:	00458713          	addi	a4,a1,4
     39c:	1b160063          	beq	a2,a7,53c <bishop_move+0x278>
     3a0:	00e8e333          	or	t1,a7,a4
     3a4:	00700e13          	li	t3,7
     3a8:	00000513          	li	a0,0
     3ac:	f26e4ce3          	blt	t3,t1,2e4 <bishop_move+0x20>
     3b0:	00371713          	slli	a4,a4,0x3
     3b4:	00e80733          	add	a4,a6,a4
     3b8:	01170733          	add	a4,a4,a7
     3bc:	00074703          	lbu	a4,0(a4)
     3c0:	f20712e3          	bnez	a4,2e4 <bishop_move+0x20>
     3c4:	00578893          	addi	a7,a5,5
     3c8:	00558713          	addi	a4,a1,5
     3cc:	19160863          	beq	a2,a7,55c <bishop_move+0x298>
     3d0:	00e8e333          	or	t1,a7,a4
     3d4:	00700e13          	li	t3,7
     3d8:	00000513          	li	a0,0
     3dc:	f06e44e3          	blt	t3,t1,2e4 <bishop_move+0x20>
     3e0:	00371713          	slli	a4,a4,0x3
     3e4:	00e80733          	add	a4,a6,a4
     3e8:	01170733          	add	a4,a4,a7
     3ec:	00074703          	lbu	a4,0(a4)
     3f0:	ee071ae3          	bnez	a4,2e4 <bishop_move+0x20>
     3f4:	00678893          	addi	a7,a5,6
     3f8:	00658713          	addi	a4,a1,6
     3fc:	15160c63          	beq	a2,a7,554 <bishop_move+0x290>
     400:	00e8e333          	or	t1,a7,a4
     404:	00700e13          	li	t3,7
     408:	00000513          	li	a0,0
     40c:	ec6e4ce3          	blt	t3,t1,2e4 <bishop_move+0x20>
     410:	00371713          	slli	a4,a4,0x3
     414:	00e80733          	add	a4,a6,a4
     418:	01170733          	add	a4,a4,a7
     41c:	00074703          	lbu	a4,0(a4)
     420:	ec0712e3          	bnez	a4,2e4 <bishop_move+0x20>
     424:	00778893          	addi	a7,a5,7
     428:	00758713          	addi	a4,a1,7
     42c:	13160063          	beq	a2,a7,54c <bishop_move+0x288>
     430:	00e8e333          	or	t1,a7,a4
     434:	00700e13          	li	t3,7
     438:	00000513          	li	a0,0
     43c:	ea6e44e3          	blt	t3,t1,2e4 <bishop_move+0x20>
     440:	00371713          	slli	a4,a4,0x3
     444:	00e80733          	add	a4,a6,a4
     448:	01170733          	add	a4,a4,a7
     44c:	00074703          	lbu	a4,0(a4)
     450:	e8071ae3          	bnez	a4,2e4 <bishop_move+0x20>
     454:	00878893          	addi	a7,a5,8
     458:	00858713          	addi	a4,a1,8
     45c:	0f160463          	beq	a2,a7,544 <bishop_move+0x280>
     460:	00e8e333          	or	t1,a7,a4
     464:	00700e13          	li	t3,7
     468:	00000513          	li	a0,0
     46c:	e66e4ce3          	blt	t3,t1,2e4 <bishop_move+0x20>
     470:	00371713          	slli	a4,a4,0x3
     474:	00e80733          	add	a4,a6,a4
     478:	01170733          	add	a4,a4,a7
     47c:	00074703          	lbu	a4,0(a4)
     480:	e60712e3          	bnez	a4,2e4 <bishop_move+0x20>
     484:	00978793          	addi	a5,a5,9
     488:	e4f61ee3          	bne	a2,a5,2e4 <bishop_move+0x20>
     48c:	00958513          	addi	a0,a1,9
     490:	40d50533          	sub	a0,a0,a3
     494:	00153513          	seqz	a0,a0
     498:	00008067          	ret
     49c:	00f62733          	slt	a4,a2,a5
     4a0:	40e00533          	neg	a0,a4
     4a4:	08d5c063          	blt	a1,a3,524 <bishop_move+0x260>
     4a8:	00b6a733          	slt	a4,a3,a1
     4ac:	40e00833          	neg	a6,a4
     4b0:	00a787b3          	add	a5,a5,a0
     4b4:	40e585b3          	sub	a1,a1,a4
     4b8:	00359713          	slli	a4,a1,0x3
     4bc:	000028b7          	lui	a7,0x2
     4c0:	00381313          	slli	t1,a6,0x3
     4c4:	00f70733          	add	a4,a4,a5
     4c8:	79888893          	addi	a7,a7,1944 # 2798 <board>
     4cc:	00a30eb3          	add	t4,t1,a0
     4d0:	01170733          	add	a4,a4,a7
     4d4:	00700f13          	li	t5,7
     4d8:	01d70733          	add	a4,a4,t4
     4dc:	40a708b3          	sub	a7,a4,a0
     4e0:	406888b3          	sub	a7,a7,t1
     4e4:	00b7ee33          	or	t3,a5,a1
     4e8:	02f60463          	beq	a2,a5,510 <bishop_move+0x24c>
     4ec:	01cf6a63          	bltu	t5,t3,500 <bishop_move+0x23c>
     4f0:	0008c883          	lbu	a7,0(a7)
     4f4:	00a787b3          	add	a5,a5,a0
     4f8:	010585b3          	add	a1,a1,a6
     4fc:	fc088ee3          	beqz	a7,4d8 <bishop_move+0x214>
     500:	00000513          	li	a0,0
     504:	00008067          	ret
     508:	e0e690e3          	bne	a3,a4,308 <bishop_move+0x44>
     50c:	0080006f          	j	514 <bishop_move+0x250>
     510:	fcb69ee3          	bne	a3,a1,4ec <bishop_move+0x228>
     514:	00100513          	li	a0,1
     518:	00008067          	ret
     51c:	e2e692e3          	bne	a3,a4,340 <bishop_move+0x7c>
     520:	ff5ff06f          	j	514 <bishop_move+0x250>
     524:	40e787b3          	sub	a5,a5,a4
     528:	00158593          	addi	a1,a1,1
     52c:	00100813          	li	a6,1
     530:	f89ff06f          	j	4b8 <bishop_move+0x1f4>
     534:	e2e69ee3          	bne	a3,a4,370 <bishop_move+0xac>
     538:	fddff06f          	j	514 <bishop_move+0x250>
     53c:	e6e692e3          	bne	a3,a4,3a0 <bishop_move+0xdc>
     540:	fd5ff06f          	j	514 <bishop_move+0x250>
     544:	f0e69ee3          	bne	a3,a4,460 <bishop_move+0x19c>
     548:	fcdff06f          	j	514 <bishop_move+0x250>
     54c:	eee692e3          	bne	a3,a4,430 <bishop_move+0x16c>
     550:	fc5ff06f          	j	514 <bishop_move+0x250>
     554:	eae696e3          	bne	a3,a4,400 <bishop_move+0x13c>
     558:	fbdff06f          	j	514 <bishop_move+0x250>
     55c:	e6e69ae3          	bne	a3,a4,3d0 <bishop_move+0x10c>
     560:	fb5ff06f          	j	514 <bishop_move+0x250>

00000564 <queen_move>:
     564:	40a60833          	sub	a6,a2,a0
     568:	00050793          	mv	a5,a0
     56c:	40b68733          	sub	a4,a3,a1
     570:	02084c63          	bltz	a6,5a8 <queen_move+0x44>
     574:	00074c63          	bltz	a4,58c <queen_move+0x28>
     578:	00f60e63          	beq	a2,a5,594 <queen_move+0x30>
     57c:	04b68063          	beq	a3,a1,5bc <queen_move+0x58>
     580:	00000513          	li	a0,0
     584:	02e80863          	beq	a6,a4,5b4 <queen_move+0x50>
     588:	00008067          	ret
     58c:	40d58733          	sub	a4,a1,a3
     590:	fef616e3          	bne	a2,a5,57c <queen_move+0x18>
     594:	08d5dc63          	bge	a1,a3,62c <queen_move+0xc8>
     598:	00158593          	addi	a1,a1,1
     59c:	00000513          	li	a0,0
     5a0:	00100813          	li	a6,1
     5a4:	0380006f          	j	5dc <queen_move+0x78>
     5a8:	40c50833          	sub	a6,a0,a2
     5ac:	fc0756e3          	bgez	a4,578 <queen_move+0x14>
     5b0:	fddff06f          	j	58c <queen_move+0x28>
     5b4:	00078513          	mv	a0,a5
     5b8:	d0dff06f          	j	2c4 <bishop_move>
     5bc:	00c7ca63          	blt	a5,a2,5d0 <queen_move+0x6c>
     5c0:	fff78793          	addi	a5,a5,-1
     5c4:	fff00513          	li	a0,-1
     5c8:	00000813          	li	a6,0
     5cc:	0100006f          	j	5dc <queen_move+0x78>
     5d0:	00178793          	addi	a5,a5,1
     5d4:	00100513          	li	a0,1
     5d8:	00000813          	li	a6,0
     5dc:	00359713          	slli	a4,a1,0x3
     5e0:	000028b7          	lui	a7,0x2
     5e4:	00381313          	slli	t1,a6,0x3
     5e8:	00f70733          	add	a4,a4,a5
     5ec:	79888893          	addi	a7,a7,1944 # 2798 <board>
     5f0:	00650f33          	add	t5,a0,t1
     5f4:	01170733          	add	a4,a4,a7
     5f8:	00700e93          	li	t4,7
     5fc:	01e70733          	add	a4,a4,t5
     600:	40a708b3          	sub	a7,a4,a0
     604:	406888b3          	sub	a7,a7,t1
     608:	00b7ee33          	or	t3,a5,a1
     60c:	02f60a63          	beq	a2,a5,640 <queen_move+0xdc>
     610:	01ceea63          	bltu	t4,t3,624 <queen_move+0xc0>
     614:	0008c883          	lbu	a7,0(a7)
     618:	00a787b3          	add	a5,a5,a0
     61c:	010585b3          	add	a1,a1,a6
     620:	fc088ee3          	beqz	a7,5fc <queen_move+0x98>
     624:	00000513          	li	a0,0
     628:	00008067          	ret
     62c:	00b6a733          	slt	a4,a3,a1
     630:	40e00833          	neg	a6,a4
     634:	40e585b3          	sub	a1,a1,a4
     638:	00000513          	li	a0,0
     63c:	fa1ff06f          	j	5dc <queen_move+0x78>
     640:	fcb698e3          	bne	a3,a1,610 <queen_move+0xac>
     644:	00100513          	li	a0,1
     648:	00008067          	ret

0000064c <king_in_check>:
     64c:	00153713          	seqz	a4,a0
     650:	40e00733          	neg	a4,a4
     654:	fb010113          	addi	sp,sp,-80
     658:	000027b7          	lui	a5,0x2
     65c:	00677713          	andi	a4,a4,6
     660:	03312e23          	sw	s3,60(sp)
     664:	03512a23          	sw	s5,52(sp)
     668:	03a12023          	sw	s10,32(sp)
     66c:	04112623          	sw	ra,76(sp)
     670:	79878d13          	addi	s10,a5,1944 # 2798 <board>
     674:	03912223          	sw	s9,36(sp)
     678:	00050a93          	mv	s5,a0
     67c:	00670713          	addi	a4,a4,6
     680:	79878793          	addi	a5,a5,1944
     684:	00000993          	li	s3,0
     688:	00800613          	li	a2,8
     68c:	0007c683          	lbu	a3,0(a5)
     690:	06e68463          	beq	a3,a4,6f8 <king_in_check+0xac>
     694:	0017c683          	lbu	a3,1(a5)
     698:	28e68e63          	beq	a3,a4,934 <__heap_size+0x134>
     69c:	0027c683          	lbu	a3,2(a5)
     6a0:	2ae68e63          	beq	a3,a4,95c <__heap_size+0x15c>
     6a4:	0037c683          	lbu	a3,3(a5)
     6a8:	2ce68e63          	beq	a3,a4,984 <__heap_size+0x184>
     6ac:	0047c683          	lbu	a3,4(a5)
     6b0:	2ee68e63          	beq	a3,a4,9ac <__heap_size+0x1ac>
     6b4:	0057c683          	lbu	a3,5(a5)
     6b8:	30e68e63          	beq	a3,a4,9d4 <__heap_size+0x1d4>
     6bc:	0067c683          	lbu	a3,6(a5)
     6c0:	32e68e63          	beq	a3,a4,9fc <__heap_size+0x1fc>
     6c4:	0077c683          	lbu	a3,7(a5)
     6c8:	00878793          	addi	a5,a5,8
     6cc:	34e68c63          	beq	a3,a4,a24 <__heap_size+0x224>
     6d0:	00198993          	addi	s3,s3,1
     6d4:	fac99ce3          	bne	s3,a2,68c <king_in_check+0x40>
     6d8:	04c12083          	lw	ra,76(sp)
     6dc:	03c12983          	lw	s3,60(sp)
     6e0:	03412a83          	lw	s5,52(sp)
     6e4:	02412c83          	lw	s9,36(sp)
     6e8:	02012d03          	lw	s10,32(sp)
     6ec:	00100513          	li	a0,1
     6f0:	05010113          	addi	sp,sp,80
     6f4:	00008067          	ret
     6f8:	04812423          	sw	s0,72(sp)
     6fc:	04912223          	sw	s1,68(sp)
     700:	05212023          	sw	s2,64(sp)
     704:	03412c23          	sw	s4,56(sp)
     708:	03612823          	sw	s6,48(sp)
     70c:	03712623          	sw	s7,44(sp)
     710:	03812423          	sw	s8,40(sp)
     714:	01b12e23          	sw	s11,28(sp)
     718:	00000c93          	li	s9,0
     71c:	413007b3          	neg	a5,s3
     720:	00f12423          	sw	a5,8(sp)
     724:	419007b3          	neg	a5,s9
     728:	00098c13          	mv	s8,s3
     72c:	00000b93          	li	s7,0
     730:	00f12623          	sw	a5,12(sp)
     734:	00700a13          	li	s4,7
     738:	00100b13          	li	s6,1
     73c:	00c12903          	lw	s2,12(sp)
     740:	000c8493          	mv	s1,s9
     744:	00000413          	li	s0,0
     748:	00800d93          	li	s11,8
     74c:	0400006f          	j	78c <king_in_check+0x140>
     750:	13670863          	beq	a4,s6,880 <__heap_size+0x80>
     754:	00400793          	li	a5,4
     758:	16f70e63          	beq	a4,a5,8d4 <__heap_size+0xd4>
     75c:	00200793          	li	a5,2
     760:	14f70063          	beq	a4,a5,8a0 <__heap_size+0xa0>
     764:	00300793          	li	a5,3
     768:	1af70463          	beq	a4,a5,910 <__heap_size+0x110>
     76c:	00500793          	li	a5,5
     770:	18f70263          	beq	a4,a5,8f4 <__heap_size+0xf4>
     774:	00600793          	li	a5,6
     778:	04f70863          	beq	a4,a5,7c8 <king_in_check+0x17c>
     77c:	00140413          	addi	s0,s0,1
     780:	fff48493          	addi	s1,s1,-1
     784:	00190913          	addi	s2,s2,1
     788:	0bb40a63          	beq	s0,s11,83c <__heap_size+0x3c>
     78c:	008d07b3          	add	a5,s10,s0
     790:	0007c703          	lbu	a4,0(a5)
     794:	fe0704e3          	beqz	a4,77c <king_in_check+0x130>
     798:	fa0a8ce3          	beqz	s5,750 <king_in_check+0x104>
     79c:	0f470263          	beq	a4,s4,880 <__heap_size+0x80>
     7a0:	00a00793          	li	a5,10
     7a4:	12f70863          	beq	a4,a5,8d4 <__heap_size+0xd4>
     7a8:	00800793          	li	a5,8
     7ac:	0ef70a63          	beq	a4,a5,8a0 <__heap_size+0xa0>
     7b0:	00900793          	li	a5,9
     7b4:	14f70e63          	beq	a4,a5,910 <__heap_size+0x110>
     7b8:	00b00793          	li	a5,11
     7bc:	12f70c63          	beq	a4,a5,8f4 <__heap_size+0xf4>
     7c0:	00c00793          	li	a5,12
     7c4:	faf71ce3          	bne	a4,a5,77c <king_in_check+0x130>
     7c8:	00048793          	mv	a5,s1
     7cc:	000c0713          	mv	a4,s8
     7d0:	0604c063          	bltz	s1,830 <__heap_size+0x30>
     7d4:	040c4a63          	bltz	s8,828 <__heap_size+0x28>
     7d8:	fafb42e3          	blt	s6,a5,77c <king_in_check+0x130>
     7dc:	faeb40e3          	blt	s6,a4,77c <king_in_check+0x130>
     7e0:	00e7e7b3          	or	a5,a5,a4
     7e4:	f8078ce3          	beqz	a5,77c <king_in_check+0x130>
     7e8:	00100513          	li	a0,1
     7ec:	04812403          	lw	s0,72(sp)
     7f0:	04412483          	lw	s1,68(sp)
     7f4:	04012903          	lw	s2,64(sp)
     7f8:	03812a03          	lw	s4,56(sp)
     7fc:	03012b03          	lw	s6,48(sp)
     800:	02c12b83          	lw	s7,44(sp)
     804:	02812c03          	lw	s8,40(sp)
     808:	01c12d83          	lw	s11,28(sp)
     80c:	04c12083          	lw	ra,76(sp)
     810:	03c12983          	lw	s3,60(sp)
     814:	03412a83          	lw	s5,52(sp)
     818:	02412c83          	lw	s9,36(sp)
     81c:	02012d03          	lw	s10,32(sp)
     820:	05010113          	addi	sp,sp,80
     824:	00008067          	ret
     828:	00812703          	lw	a4,8(sp)
     82c:	fadff06f          	j	7d8 <king_in_check+0x18c>
     830:	00090793          	mv	a5,s2
     834:	fa0c52e3          	bgez	s8,7d8 <king_in_check+0x18c>
     838:	ff1ff06f          	j	828 <__heap_size+0x28>
     83c:	00812783          	lw	a5,8(sp)
     840:	001b8b93          	addi	s7,s7,1
     844:	008d0d13          	addi	s10,s10,8
     848:	00178793          	addi	a5,a5,1
     84c:	00f12423          	sw	a5,8(sp)
     850:	fffc0c13          	addi	s8,s8,-1
     854:	ee8b94e3          	bne	s7,s0,73c <king_in_check+0xf0>
     858:	04812403          	lw	s0,72(sp)
     85c:	04412483          	lw	s1,68(sp)
     860:	04012903          	lw	s2,64(sp)
     864:	03812a03          	lw	s4,56(sp)
     868:	03012b03          	lw	s6,48(sp)
     86c:	02c12b83          	lw	s7,44(sp)
     870:	02812c03          	lw	s8,40(sp)
     874:	01c12d83          	lw	s11,28(sp)
     878:	00000513          	li	a0,0
     87c:	f91ff06f          	j	80c <__heap_size+0xc>
     880:	00098693          	mv	a3,s3
     884:	000c8613          	mv	a2,s9
     888:	000b8593          	mv	a1,s7
     88c:	00040513          	mv	a0,s0
     890:	935ff0ef          	jal	1c4 <pawn_move>
     894:	ee0504e3          	beqz	a0,77c <king_in_check+0x130>
     898:	00100513          	li	a0,1
     89c:	f51ff06f          	j	7ec <king_in_check+0x1a0>
     8a0:	00048513          	mv	a0,s1
     8a4:	000c0793          	mv	a5,s8
     8a8:	0204c263          	bltz	s1,8cc <__heap_size+0xcc>
     8ac:	000c5463          	bgez	s8,8b4 <__heap_size+0xb4>
     8b0:	00812783          	lw	a5,8(sp)
     8b4:	00200713          	li	a4,2
     8b8:	07650a63          	beq	a0,s6,92c <__heap_size+0x12c>
     8bc:	ece510e3          	bne	a0,a4,77c <king_in_check+0x130>
     8c0:	eb679ee3          	bne	a5,s6,77c <king_in_check+0x130>
     8c4:	00100513          	li	a0,1
     8c8:	f25ff06f          	j	7ec <king_in_check+0x1a0>
     8cc:	00090513          	mv	a0,s2
     8d0:	fddff06f          	j	8ac <__heap_size+0xac>
     8d4:	17940c63          	beq	s0,s9,a4c <__heap_size+0x24c>
     8d8:	eb7992e3          	bne	s3,s7,77c <king_in_check+0x130>
     8dc:	1f944063          	blt	s0,s9,abc <__heap_size+0x2bc>
     8e0:	fff40713          	addi	a4,s0,-1
     8e4:	00098793          	mv	a5,s3
     8e8:	fff00513          	li	a0,-1
     8ec:	00000e93          	li	t4,0
     8f0:	1700006f          	j	a60 <__heap_size+0x260>
     8f4:	00098693          	mv	a3,s3
     8f8:	000c8613          	mv	a2,s9
     8fc:	000b8593          	mv	a1,s7
     900:	00040513          	mv	a0,s0
     904:	c61ff0ef          	jal	564 <queen_move>
     908:	e6050ae3          	beqz	a0,77c <king_in_check+0x130>
     90c:	f8dff06f          	j	898 <__heap_size+0x98>
     910:	00098693          	mv	a3,s3
     914:	000c8613          	mv	a2,s9
     918:	000b8593          	mv	a1,s7
     91c:	00040513          	mv	a0,s0
     920:	9a5ff0ef          	jal	2c4 <bishop_move>
     924:	e4050ce3          	beqz	a0,77c <king_in_check+0x130>
     928:	f71ff06f          	j	898 <__heap_size+0x98>
     92c:	e4e798e3          	bne	a5,a4,77c <king_in_check+0x130>
     930:	ebdff06f          	j	7ec <king_in_check+0x1a0>
     934:	04812423          	sw	s0,72(sp)
     938:	04912223          	sw	s1,68(sp)
     93c:	05212023          	sw	s2,64(sp)
     940:	03412c23          	sw	s4,56(sp)
     944:	03612823          	sw	s6,48(sp)
     948:	03712623          	sw	s7,44(sp)
     94c:	03812423          	sw	s8,40(sp)
     950:	01b12e23          	sw	s11,28(sp)
     954:	00100c93          	li	s9,1
     958:	dc5ff06f          	j	71c <king_in_check+0xd0>
     95c:	04812423          	sw	s0,72(sp)
     960:	04912223          	sw	s1,68(sp)
     964:	05212023          	sw	s2,64(sp)
     968:	03412c23          	sw	s4,56(sp)
     96c:	03612823          	sw	s6,48(sp)
     970:	03712623          	sw	s7,44(sp)
     974:	03812423          	sw	s8,40(sp)
     978:	01b12e23          	sw	s11,28(sp)
     97c:	00200c93          	li	s9,2
     980:	d9dff06f          	j	71c <king_in_check+0xd0>
     984:	04812423          	sw	s0,72(sp)
     988:	04912223          	sw	s1,68(sp)
     98c:	05212023          	sw	s2,64(sp)
     990:	03412c23          	sw	s4,56(sp)
     994:	03612823          	sw	s6,48(sp)
     998:	03712623          	sw	s7,44(sp)
     99c:	03812423          	sw	s8,40(sp)
     9a0:	01b12e23          	sw	s11,28(sp)
     9a4:	00300c93          	li	s9,3
     9a8:	d75ff06f          	j	71c <king_in_check+0xd0>
     9ac:	04812423          	sw	s0,72(sp)
     9b0:	04912223          	sw	s1,68(sp)
     9b4:	05212023          	sw	s2,64(sp)
     9b8:	03412c23          	sw	s4,56(sp)
     9bc:	03612823          	sw	s6,48(sp)
     9c0:	03712623          	sw	s7,44(sp)
     9c4:	03812423          	sw	s8,40(sp)
     9c8:	01b12e23          	sw	s11,28(sp)
     9cc:	00400c93          	li	s9,4
     9d0:	d4dff06f          	j	71c <king_in_check+0xd0>
     9d4:	04812423          	sw	s0,72(sp)
     9d8:	04912223          	sw	s1,68(sp)
     9dc:	05212023          	sw	s2,64(sp)
     9e0:	03412c23          	sw	s4,56(sp)
     9e4:	03612823          	sw	s6,48(sp)
     9e8:	03712623          	sw	s7,44(sp)
     9ec:	03812423          	sw	s8,40(sp)
     9f0:	01b12e23          	sw	s11,28(sp)
     9f4:	00500c93          	li	s9,5
     9f8:	d25ff06f          	j	71c <king_in_check+0xd0>
     9fc:	04812423          	sw	s0,72(sp)
     a00:	04912223          	sw	s1,68(sp)
     a04:	05212023          	sw	s2,64(sp)
     a08:	03412c23          	sw	s4,56(sp)
     a0c:	03612823          	sw	s6,48(sp)
     a10:	03712623          	sw	s7,44(sp)
     a14:	03812423          	sw	s8,40(sp)
     a18:	01b12e23          	sw	s11,28(sp)
     a1c:	00600c93          	li	s9,6
     a20:	cfdff06f          	j	71c <king_in_check+0xd0>
     a24:	04812423          	sw	s0,72(sp)
     a28:	04912223          	sw	s1,68(sp)
     a2c:	05212023          	sw	s2,64(sp)
     a30:	03412c23          	sw	s4,56(sp)
     a34:	03612823          	sw	s6,48(sp)
     a38:	03712623          	sw	s7,44(sp)
     a3c:	03812423          	sw	s8,40(sp)
     a40:	01b12e23          	sw	s11,28(sp)
     a44:	00700c93          	li	s9,7
     a48:	cd5ff06f          	j	71c <king_in_check+0xd0>
     a4c:	093bd263          	bge	s7,s3,ad0 <__heap_size+0x2d0>
     a50:	001b8793          	addi	a5,s7,1
     a54:	00040713          	mv	a4,s0
     a58:	00000513          	li	a0,0
     a5c:	00100e93          	li	t4,1
     a60:	00379693          	slli	a3,a5,0x3
     a64:	00002637          	lui	a2,0x2
     a68:	003e9f13          	slli	t5,t4,0x3
     a6c:	00e686b3          	add	a3,a3,a4
     a70:	79860613          	addi	a2,a2,1944 # 2798 <board>
     a74:	01e50fb3          	add	t6,a0,t5
     a78:	00d606b3          	add	a3,a2,a3
     a7c:	00178293          	addi	t0,a5,1
     a80:	20100e13          	li	t3,513
     a84:	005e5e33          	srl	t3,t3,t0
     a88:	001e7e13          	andi	t3,t3,1
     a8c:	00700293          	li	t0,7
     a90:	05970c63          	beq	a4,s9,ae8 <__heap_size+0x2e8>
     a94:	cee2e4e3          	bltu	t0,a4,77c <king_in_check+0x130>
     a98:	01f686b3          	add	a3,a3,t6
     a9c:	40a682b3          	sub	t0,a3,a0
     aa0:	41e282b3          	sub	t0,t0,t5
     aa4:	cc0e1ce3          	bnez	t3,77c <king_in_check+0x130>
     aa8:	0002ce03          	lbu	t3,0(t0)
     aac:	00a70733          	add	a4,a4,a0
     ab0:	01d787b3          	add	a5,a5,t4
     ab4:	fc0e04e3          	beqz	t3,a7c <__heap_size+0x27c>
     ab8:	cc5ff06f          	j	77c <king_in_check+0x130>
     abc:	00140713          	addi	a4,s0,1
     ac0:	00098793          	mv	a5,s3
     ac4:	00100513          	li	a0,1
     ac8:	00000e93          	li	t4,0
     acc:	f95ff06f          	j	a60 <__heap_size+0x260>
     ad0:	0179a7b3          	slt	a5,s3,s7
     ad4:	40f00eb3          	neg	t4,a5
     ad8:	00040713          	mv	a4,s0
     adc:	40fb87b3          	sub	a5,s7,a5
     ae0:	00000513          	li	a0,0
     ae4:	f7dff06f          	j	a60 <__heap_size+0x260>
     ae8:	fb3798e3          	bne	a5,s3,a98 <__heap_size+0x298>
     aec:	cfdff06f          	j	7e8 <king_in_check+0x19c>

00000af0 <legal_move>:
     af0:	00d66833          	or	a6,a2,a3
     af4:	fd010113          	addi	sp,sp,-48
     af8:	00b86833          	or	a6,a6,a1
     afc:	02912223          	sw	s1,36(sp)
     b00:	03212023          	sw	s2,32(sp)
     b04:	00058493          	mv	s1,a1
     b08:	02112623          	sw	ra,44(sp)
     b0c:	00a86833          	or	a6,a6,a0
     b10:	00700593          	li	a1,7
     b14:	00000913          	li	s2,0
     b18:	0f05e463          	bltu	a1,a6,c00 <legal_move+0x110>
     b1c:	02812423          	sw	s0,40(sp)
     b20:	00050413          	mv	s0,a0
     b24:	0ec50a63          	beq	a0,a2,c18 <legal_move+0x128>
     b28:	00070913          	mv	s2,a4
     b2c:	0e070a63          	beqz	a4,c20 <legal_move+0x130>
     b30:	01412c23          	sw	s4,24(sp)
     b34:	00002a37          	lui	s4,0x2
     b38:	01512a23          	sw	s5,20(sp)
     b3c:	798a0a13          	addi	s4,s4,1944 # 2798 <board>
     b40:	00369a93          	slli	s5,a3,0x3
     b44:	015a05b3          	add	a1,s4,s5
     b48:	01312e23          	sw	s3,28(sp)
     b4c:	00c585b3          	add	a1,a1,a2
     b50:	0005c983          	lbu	s3,0(a1)
     b54:	02098c63          	beqz	s3,b8c <legal_move+0x9c>
     b58:	00070513          	mv	a0,a4
     b5c:	00098593          	mv	a1,s3
     b60:	00f12623          	sw	a5,12(sp)
     b64:	00d12423          	sw	a3,8(sp)
     b68:	00c12223          	sw	a2,4(sp)
     b6c:	00e12023          	sw	a4,0(sp)
     b70:	e24ff0ef          	jal	194 <same_color.part.0>
     b74:	00012703          	lw	a4,0(sp)
     b78:	00412603          	lw	a2,4(sp)
     b7c:	00812683          	lw	a3,8(sp)
     b80:	00c12783          	lw	a5,12(sp)
     b84:	00000913          	li	s2,0
     b88:	0e051263          	bnez	a0,c6c <legal_move+0x17c>
     b8c:	08078e63          	beqz	a5,c28 <legal_move+0x138>
     b90:	00100593          	li	a1,1
     b94:	1ab71663          	bne	a4,a1,d40 <legal_move+0x250>
     b98:	00048593          	mv	a1,s1
     b9c:	00040513          	mv	a0,s0
     ba0:	00f12223          	sw	a5,4(sp)
     ba4:	00c12023          	sw	a2,0(sp)
     ba8:	e1cff0ef          	jal	1c4 <pawn_move>
     bac:	00412783          	lw	a5,4(sp)
     bb0:	00012603          	lw	a2,0(sp)
     bb4:	00050913          	mv	s2,a0
     bb8:	0a090a63          	beqz	s2,c6c <legal_move+0x17c>
     bbc:	00349713          	slli	a4,s1,0x3
     bc0:	00ea0733          	add	a4,s4,a4
     bc4:	00870433          	add	s0,a4,s0
     bc8:	00044903          	lbu	s2,0(s0)
     bcc:	015a04b3          	add	s1,s4,s5
     bd0:	00040023          	sb	zero,0(s0)
     bd4:	00c484b3          	add	s1,s1,a2
     bd8:	00078513          	mv	a0,a5
     bdc:	01248023          	sb	s2,0(s1)
     be0:	a6dff0ef          	jal	64c <king_in_check>
     be4:	01240023          	sb	s2,0(s0)
     be8:	01348023          	sb	s3,0(s1)
     bec:	02812403          	lw	s0,40(sp)
     bf0:	01c12983          	lw	s3,28(sp)
     bf4:	01812a03          	lw	s4,24(sp)
     bf8:	01412a83          	lw	s5,20(sp)
     bfc:	00153913          	seqz	s2,a0
     c00:	02c12083          	lw	ra,44(sp)
     c04:	02412483          	lw	s1,36(sp)
     c08:	00090513          	mv	a0,s2
     c0c:	02012903          	lw	s2,32(sp)
     c10:	03010113          	addi	sp,sp,48
     c14:	00008067          	ret
     c18:	00000913          	li	s2,0
     c1c:	f0d496e3          	bne	s1,a3,b28 <legal_move+0x38>
     c20:	02812403          	lw	s0,40(sp)
     c24:	fddff06f          	j	c00 <legal_move+0x110>
     c28:	00700593          	li	a1,7
     c2c:	f6b706e3          	beq	a4,a1,b98 <legal_move+0xa8>
     c30:	00a00593          	li	a1,10
     c34:	08b70c63          	beq	a4,a1,ccc <legal_move+0x1dc>
     c38:	00800593          	li	a1,8
     c3c:	20b71e63          	bne	a4,a1,e58 <legal_move+0x368>
     c40:	408605b3          	sub	a1,a2,s0
     c44:	40968533          	sub	a0,a3,s1
     c48:	0205cc63          	bltz	a1,c80 <legal_move+0x190>
     c4c:	00055463          	bgez	a0,c54 <legal_move+0x164>
     c50:	40d48533          	sub	a0,s1,a3
     c54:	00100693          	li	a3,1
     c58:	02d58863          	beq	a1,a3,c88 <legal_move+0x198>
     c5c:	00200813          	li	a6,2
     c60:	00000913          	li	s2,0
     c64:	01059463          	bne	a1,a6,c6c <legal_move+0x17c>
     c68:	02d50463          	beq	a0,a3,c90 <legal_move+0x1a0>
     c6c:	02812403          	lw	s0,40(sp)
     c70:	01c12983          	lw	s3,28(sp)
     c74:	01812a03          	lw	s4,24(sp)
     c78:	01412a83          	lw	s5,20(sp)
     c7c:	f85ff06f          	j	c00 <legal_move+0x110>
     c80:	40c405b3          	sub	a1,s0,a2
     c84:	fc9ff06f          	j	c4c <legal_move+0x15c>
     c88:	00200693          	li	a3,2
     c8c:	02d51463          	bne	a0,a3,cb4 <legal_move+0x1c4>
     c90:	f20986e3          	beqz	s3,bbc <legal_move+0xcc>
     c94:	00098593          	mv	a1,s3
     c98:	00070513          	mv	a0,a4
     c9c:	00f12223          	sw	a5,4(sp)
     ca0:	00c12023          	sw	a2,0(sp)
     ca4:	cf0ff0ef          	jal	194 <same_color.part.0>
     ca8:	00012603          	lw	a2,0(sp)
     cac:	00412783          	lw	a5,4(sp)
     cb0:	f00506e3          	beqz	a0,bbc <legal_move+0xcc>
     cb4:	02812403          	lw	s0,40(sp)
     cb8:	01c12983          	lw	s3,28(sp)
     cbc:	01812a03          	lw	s4,24(sp)
     cc0:	01412a83          	lw	s5,20(sp)
     cc4:	00000913          	li	s2,0
     cc8:	f39ff06f          	j	c00 <legal_move+0x110>
     ccc:	0ec40863          	beq	s0,a2,dbc <legal_move+0x2cc>
     cd0:	00000913          	li	s2,0
     cd4:	f8d49ce3          	bne	s1,a3,c6c <legal_move+0x17c>
     cd8:	0cc44863          	blt	s0,a2,da8 <legal_move+0x2b8>
     cdc:	fff40513          	addi	a0,s0,-1
     ce0:	00048713          	mv	a4,s1
     ce4:	fff00813          	li	a6,-1
     ce8:	00000893          	li	a7,0
     cec:	00371593          	slli	a1,a4,0x3
     cf0:	00389e93          	slli	t4,a7,0x3
     cf4:	00a585b3          	add	a1,a1,a0
     cf8:	01d80f33          	add	t5,a6,t4
     cfc:	00ba05b3          	add	a1,s4,a1
     d00:	00170e13          	addi	t3,a4,1
     d04:	20100313          	li	t1,513
     d08:	01c35333          	srl	t1,t1,t3
     d0c:	00137313          	andi	t1,t1,1
     d10:	00700e13          	li	t3,7
     d14:	12a60e63          	beq	a2,a0,e50 <legal_move+0x360>
     d18:	f8ae6ee3          	bltu	t3,a0,cb4 <legal_move+0x1c4>
     d1c:	01e585b3          	add	a1,a1,t5
     d20:	41058e33          	sub	t3,a1,a6
     d24:	41de0e33          	sub	t3,t3,t4
     d28:	f80316e3          	bnez	t1,cb4 <legal_move+0x1c4>
     d2c:	000e4303          	lbu	t1,0(t3)
     d30:	01050533          	add	a0,a0,a6
     d34:	01170733          	add	a4,a4,a7
     d38:	fc0304e3          	beqz	t1,d00 <legal_move+0x210>
     d3c:	f79ff06f          	j	cb4 <legal_move+0x1c4>
     d40:	00400593          	li	a1,4
     d44:	f8b704e3          	beq	a4,a1,ccc <legal_move+0x1dc>
     d48:	00200593          	li	a1,2
     d4c:	eeb70ae3          	beq	a4,a1,c40 <legal_move+0x150>
     d50:	00300593          	li	a1,3
     d54:	02b70863          	beq	a4,a1,d84 <legal_move+0x294>
     d58:	00500593          	li	a1,5
     d5c:	06b71c63          	bne	a4,a1,dd4 <legal_move+0x2e4>
     d60:	00048593          	mv	a1,s1
     d64:	00040513          	mv	a0,s0
     d68:	00f12223          	sw	a5,4(sp)
     d6c:	00c12023          	sw	a2,0(sp)
     d70:	ff4ff0ef          	jal	564 <queen_move>
     d74:	00012603          	lw	a2,0(sp)
     d78:	00412783          	lw	a5,4(sp)
     d7c:	00050913          	mv	s2,a0
     d80:	e39ff06f          	j	bb8 <legal_move+0xc8>
     d84:	00048593          	mv	a1,s1
     d88:	00040513          	mv	a0,s0
     d8c:	00f12223          	sw	a5,4(sp)
     d90:	00c12023          	sw	a2,0(sp)
     d94:	d30ff0ef          	jal	2c4 <bishop_move>
     d98:	00012603          	lw	a2,0(sp)
     d9c:	00412783          	lw	a5,4(sp)
     da0:	00050913          	mv	s2,a0
     da4:	e15ff06f          	j	bb8 <legal_move+0xc8>
     da8:	00140513          	addi	a0,s0,1
     dac:	00048713          	mv	a4,s1
     db0:	00100813          	li	a6,1
     db4:	00000893          	li	a7,0
     db8:	f35ff06f          	j	cec <legal_move+0x1fc>
     dbc:	06d4de63          	bge	s1,a3,e38 <legal_move+0x348>
     dc0:	00148713          	addi	a4,s1,1
     dc4:	00040513          	mv	a0,s0
     dc8:	00000813          	li	a6,0
     dcc:	00100893          	li	a7,1
     dd0:	f1dff06f          	j	cec <legal_move+0x1fc>
     dd4:	00600593          	li	a1,6
     dd8:	ecb71ee3          	bne	a4,a1,cb4 <legal_move+0x1c4>
     ddc:	408605b3          	sub	a1,a2,s0
     de0:	40968533          	sub	a0,a3,s1
     de4:	0405c663          	bltz	a1,e30 <legal_move+0x340>
     de8:	00055463          	bgez	a0,df0 <legal_move+0x300>
     dec:	40d48533          	sub	a0,s1,a3
     df0:	00100693          	li	a3,1
     df4:	00000913          	li	s2,0
     df8:	e6b6cae3          	blt	a3,a1,c6c <legal_move+0x17c>
     dfc:	e6a6c8e3          	blt	a3,a0,c6c <legal_move+0x17c>
     e00:	00a5e5b3          	or	a1,a1,a0
     e04:	e60584e3          	beqz	a1,c6c <legal_move+0x17c>
     e08:	da098ae3          	beqz	s3,bbc <legal_move+0xcc>
     e0c:	00098593          	mv	a1,s3
     e10:	00070513          	mv	a0,a4
     e14:	00f12223          	sw	a5,4(sp)
     e18:	00c12023          	sw	a2,0(sp)
     e1c:	b78ff0ef          	jal	194 <same_color.part.0>
     e20:	00012603          	lw	a2,0(sp)
     e24:	00412783          	lw	a5,4(sp)
     e28:	d8050ae3          	beqz	a0,bbc <legal_move+0xcc>
     e2c:	e41ff06f          	j	c6c <legal_move+0x17c>
     e30:	40c405b3          	sub	a1,s0,a2
     e34:	fb5ff06f          	j	de8 <legal_move+0x2f8>
     e38:	0096a733          	slt	a4,a3,s1
     e3c:	40e008b3          	neg	a7,a4
     e40:	00040513          	mv	a0,s0
     e44:	40e48733          	sub	a4,s1,a4
     e48:	00000813          	li	a6,0
     e4c:	ea1ff06f          	j	cec <legal_move+0x1fc>
     e50:	ece696e3          	bne	a3,a4,d1c <legal_move+0x22c>
     e54:	d69ff06f          	j	bbc <legal_move+0xcc>
     e58:	00900593          	li	a1,9
     e5c:	f2b704e3          	beq	a4,a1,d84 <legal_move+0x294>
     e60:	00b00593          	li	a1,11
     e64:	eeb70ee3          	beq	a4,a1,d60 <legal_move+0x270>
     e68:	00c00593          	li	a1,12
     e6c:	f6b708e3          	beq	a4,a1,ddc <legal_move+0x2ec>
     e70:	e45ff06f          	j	cb4 <legal_move+0x1c4>

00000e74 <is_checkmate>:
     e74:	fd010113          	addi	sp,sp,-48
     e78:	01412c23          	sw	s4,24(sp)
     e7c:	02112623          	sw	ra,44(sp)
     e80:	00050a13          	mv	s4,a0
     e84:	fc8ff0ef          	jal	64c <king_in_check>
     e88:	00051a63          	bnez	a0,e9c <is_checkmate+0x28>
     e8c:	02c12083          	lw	ra,44(sp)
     e90:	01812a03          	lw	s4,24(sp)
     e94:	03010113          	addi	sp,sp,48
     e98:	00008067          	ret
     e9c:	01712623          	sw	s7,12(sp)
     ea0:	00002bb7          	lui	s7,0x2
     ea4:	01512a23          	sw	s5,20(sp)
     ea8:	01612823          	sw	s6,16(sp)
     eac:	01812423          	sw	s8,8(sp)
     eb0:	02812423          	sw	s0,40(sp)
     eb4:	02912223          	sw	s1,36(sp)
     eb8:	03212023          	sw	s2,32(sp)
     ebc:	01312e23          	sw	s3,28(sp)
     ec0:	798b8b93          	addi	s7,s7,1944 # 2798 <board>
     ec4:	00000a93          	li	s5,0
     ec8:	00500c13          	li	s8,5
     ecc:	00800b13          	li	s6,8
     ed0:	00000493          	li	s1,0
     ed4:	009b87b3          	add	a5,s7,s1
     ed8:	0007c903          	lbu	s2,0(a5)
     edc:	00090a63          	beqz	s2,ef0 <is_checkmate+0x7c>
     ee0:	020a0663          	beqz	s4,f0c <is_checkmate+0x98>
     ee4:	fff90793          	addi	a5,s2,-1
     ee8:	0ff7f793          	zext.b	a5,a5
     eec:	02fc7663          	bgeu	s8,a5,f18 <is_checkmate+0xa4>
     ef0:	00148493          	addi	s1,s1,1
     ef4:	ff6490e3          	bne	s1,s6,ed4 <is_checkmate+0x60>
     ef8:	001a8a93          	addi	s5,s5,1
     efc:	008b8b93          	addi	s7,s7,8
     f00:	fc9a98e3          	bne	s5,s1,ed0 <is_checkmate+0x5c>
     f04:	00100513          	li	a0,1
     f08:	0a00006f          	j	fa8 <is_checkmate+0x134>
     f0c:	ff990793          	addi	a5,s2,-7
     f10:	0ff7f793          	zext.b	a5,a5
     f14:	fcfc6ee3          	bltu	s8,a5,ef0 <is_checkmate+0x7c>
     f18:	00000993          	li	s3,0
     f1c:	033a8e63          	beq	s5,s3,f58 <is_checkmate+0xe4>
     f20:	00000413          	li	s0,0
     f24:	00040613          	mv	a2,s0
     f28:	000a0793          	mv	a5,s4
     f2c:	00090713          	mv	a4,s2
     f30:	00098693          	mv	a3,s3
     f34:	000a8593          	mv	a1,s5
     f38:	00048513          	mv	a0,s1
     f3c:	bb5ff0ef          	jal	af0 <legal_move>
     f40:	00140413          	addi	s0,s0,1
     f44:	06051063          	bnez	a0,fa4 <is_checkmate+0x130>
     f48:	fd641ee3          	bne	s0,s6,f24 <is_checkmate+0xb0>
     f4c:	00198993          	addi	s3,s3,1
     f50:	fb6980e3          	beq	s3,s6,ef0 <is_checkmate+0x7c>
     f54:	fd3a96e3          	bne	s5,s3,f20 <is_checkmate+0xac>
     f58:	01912223          	sw	s9,4(sp)
     f5c:	00000413          	li	s0,0
     f60:	00800c93          	li	s9,8
     f64:	000a0793          	mv	a5,s4
     f68:	00090713          	mv	a4,s2
     f6c:	00098693          	mv	a3,s3
     f70:	00040613          	mv	a2,s0
     f74:	000a8593          	mv	a1,s5
     f78:	00048513          	mv	a0,s1
     f7c:	00848663          	beq	s1,s0,f88 <is_checkmate+0x114>
     f80:	b71ff0ef          	jal	af0 <legal_move>
     f84:	00051e63          	bnez	a0,fa0 <is_checkmate+0x12c>
     f88:	00140413          	addi	s0,s0,1
     f8c:	fd941ce3          	bne	s0,s9,f64 <is_checkmate+0xf0>
     f90:	00198993          	addi	s3,s3,1
     f94:	00412c83          	lw	s9,4(sp)
     f98:	fb699ee3          	bne	s3,s6,f54 <is_checkmate+0xe0>
     f9c:	f55ff06f          	j	ef0 <is_checkmate+0x7c>
     fa0:	00412c83          	lw	s9,4(sp)
     fa4:	00000513          	li	a0,0
     fa8:	02812403          	lw	s0,40(sp)
     fac:	02c12083          	lw	ra,44(sp)
     fb0:	02412483          	lw	s1,36(sp)
     fb4:	02012903          	lw	s2,32(sp)
     fb8:	01c12983          	lw	s3,28(sp)
     fbc:	01412a83          	lw	s5,20(sp)
     fc0:	01012b03          	lw	s6,16(sp)
     fc4:	00c12b83          	lw	s7,12(sp)
     fc8:	00812c03          	lw	s8,8(sp)
     fcc:	01812a03          	lw	s4,24(sp)
     fd0:	03010113          	addi	sp,sp,48
     fd4:	00008067          	ret

00000fd8 <jtag_uart_putc>:
     fd8:	04000737          	lui	a4,0x4000
     fdc:	04470713          	addi	a4,a4,68 # 4000044 <_stack_end+0x3efabc4>
     fe0:	00072783          	lw	a5,0(a4)
     fe4:	0107d793          	srli	a5,a5,0x10
     fe8:	fe078ce3          	beqz	a5,fe0 <jtag_uart_putc+0x8>
     fec:	040007b7          	lui	a5,0x4000
     ff0:	04a7a023          	sw	a0,64(a5) # 4000040 <_stack_end+0x3efabc0>
     ff4:	00008067          	ret

00000ff8 <jtag_uart_puts>:
     ff8:	00054683          	lbu	a3,0(a0)
     ffc:	02068e63          	beqz	a3,1038 <jtag_uart_puts+0x40>
    1000:	04000737          	lui	a4,0x4000
    1004:	04000637          	lui	a2,0x4000
    1008:	00a00593          	li	a1,10
    100c:	04470713          	addi	a4,a4,68 # 4000044 <_stack_end+0x3efabc4>
    1010:	04060613          	addi	a2,a2,64 # 4000040 <_stack_end+0x3efabc0>
    1014:	00d00813          	li	a6,13
    1018:	02b68263          	beq	a3,a1,103c <jtag_uart_puts+0x44>
    101c:	00150513          	addi	a0,a0,1
    1020:	00072783          	lw	a5,0(a4)
    1024:	0107d793          	srli	a5,a5,0x10
    1028:	fe078ce3          	beqz	a5,1020 <jtag_uart_puts+0x28>
    102c:	00d62023          	sw	a3,0(a2)
    1030:	00054683          	lbu	a3,0(a0)
    1034:	fe0692e3          	bnez	a3,1018 <jtag_uart_puts+0x20>
    1038:	00008067          	ret
    103c:	00072783          	lw	a5,0(a4)
    1040:	0107d793          	srli	a5,a5,0x10
    1044:	fe078ce3          	beqz	a5,103c <jtag_uart_puts+0x44>
    1048:	01062023          	sw	a6,0(a2)
    104c:	00054683          	lbu	a3,0(a0)
    1050:	fcdff06f          	j	101c <jtag_uart_puts+0x24>

00001054 <jtag_uart_getc_nonblock>:
    1054:	040007b7          	lui	a5,0x4000
    1058:	0407a503          	lw	a0,64(a5) # 4000040 <_stack_end+0x3efabc0>
    105c:	01051793          	slli	a5,a0,0x10
    1060:	0007d663          	bgez	a5,106c <jtag_uart_getc_nonblock+0x18>
    1064:	0ff57513          	zext.b	a0,a0
    1068:	00008067          	ret
    106c:	fff00513          	li	a0,-1
    1070:	00008067          	ret

00001074 <jtag_uart_getc_block>:
    1074:	040007b7          	lui	a5,0x4000
    1078:	04078793          	addi	a5,a5,64 # 4000040 <_stack_end+0x3efabc0>
    107c:	0007a503          	lw	a0,0(a5)
    1080:	01051713          	slli	a4,a0,0x10
    1084:	fe075ce3          	bgez	a4,107c <jtag_uart_getc_block+0x8>
    1088:	0ff57513          	zext.b	a0,a0
    108c:	00008067          	ret

00001090 <jtag_uart_readline>:
    1090:	04000637          	lui	a2,0x4000
    1094:	04000837          	lui	a6,0x4000
    1098:	00050e13          	mv	t3,a0
    109c:	fff58893          	addi	a7,a1,-1
    10a0:	00000513          	li	a0,0
    10a4:	04060613          	addi	a2,a2,64 # 4000040 <_stack_end+0x3efabc0>
    10a8:	00d00593          	li	a1,13
    10ac:	00a00313          	li	t1,10
    10b0:	04480813          	addi	a6,a6,68 # 4000044 <_stack_end+0x3efabc4>
    10b4:	00062783          	lw	a5,0(a2)
    10b8:	01079713          	slli	a4,a5,0x10
    10bc:	fe075ce3          	bgez	a4,10b4 <jtag_uart_readline+0x24>
    10c0:	0ff7f693          	zext.b	a3,a5
    10c4:	feb688e3          	beq	a3,a1,10b4 <jtag_uart_readline+0x24>
    10c8:	02668463          	beq	a3,t1,10f0 <jtag_uart_readline+0x60>
    10cc:	00082703          	lw	a4,0(a6)
    10d0:	01075713          	srli	a4,a4,0x10
    10d4:	fe070ce3          	beqz	a4,10cc <jtag_uart_readline+0x3c>
    10d8:	00d62023          	sw	a3,0(a2)
    10dc:	fd155ce3          	bge	a0,a7,10b4 <jtag_uart_readline+0x24>
    10e0:	00ae0733          	add	a4,t3,a0
    10e4:	00f70023          	sb	a5,0(a4)
    10e8:	00150513          	addi	a0,a0,1
    10ec:	fc9ff06f          	j	10b4 <jtag_uart_readline+0x24>
    10f0:	04000737          	lui	a4,0x4000
    10f4:	04470713          	addi	a4,a4,68 # 4000044 <_stack_end+0x3efabc4>
    10f8:	00072783          	lw	a5,0(a4)
    10fc:	0107d793          	srli	a5,a5,0x10
    1100:	fe078ce3          	beqz	a5,10f8 <jtag_uart_readline+0x68>
    1104:	040007b7          	lui	a5,0x4000
    1108:	04000737          	lui	a4,0x4000
    110c:	00d00693          	li	a3,13
    1110:	04d7a023          	sw	a3,64(a5) # 4000040 <_stack_end+0x3efabc0>
    1114:	04470713          	addi	a4,a4,68 # 4000044 <_stack_end+0x3efabc4>
    1118:	00072783          	lw	a5,0(a4)
    111c:	0107d793          	srli	a5,a5,0x10
    1120:	fe078ce3          	beqz	a5,1118 <jtag_uart_readline+0x88>
    1124:	040007b7          	lui	a5,0x4000
    1128:	00a00713          	li	a4,10
    112c:	04e7a023          	sw	a4,64(a5) # 4000040 <_stack_end+0x3efabc0>
    1130:	00ae0e33          	add	t3,t3,a0
    1134:	000e0023          	sb	zero,0(t3)
    1138:	00008067          	ret

0000113c <get_framebuffer>:
    113c:	08000537          	lui	a0,0x8000
    1140:	00008067          	ret

00001144 <get_vga_control>:
    1144:	04000537          	lui	a0,0x4000
    1148:	10050513          	addi	a0,a0,256 # 4000100 <_stack_end+0x3efac80>
    114c:	00008067          	ret

00001150 <draw_board_tiles>:
    1150:	08000fb7          	lui	t6,0x8000
    1154:	00000f13          	li	t5,0
    1158:	00000e93          	li	t4,0
    115c:	01e00813          	li	a6,30
    1160:	028f8f93          	addi	t6,t6,40 # 8000028 <_stack_end+0x7efaba8>
    1164:	fdb00e13          	li	t3,-37
    1168:	0f000513          	li	a0,240
    116c:	04900313          	li	t1,73
    1170:	030ec8b3          	div	a7,t4,a6
    1174:	00000713          	li	a4,0
    1178:	01ff06b3          	add	a3,t5,t6
    117c:	00e685b3          	add	a1,a3,a4
    1180:	030747b3          	div	a5,a4,a6
    1184:	011787b3          	add	a5,a5,a7
    1188:	0017f793          	andi	a5,a5,1
    118c:	02078063          	beqz	a5,11ac <draw_board_tiles+0x5c>
    1190:	00658023          	sb	t1,0(a1)
    1194:	00170713          	addi	a4,a4,1
    1198:	fea712e3          	bne	a4,a0,117c <draw_board_tiles+0x2c>
    119c:	001e8e93          	addi	t4,t4,1
    11a0:	140f0f13          	addi	t5,t5,320
    11a4:	fcae96e3          	bne	t4,a0,1170 <draw_board_tiles+0x20>
    11a8:	00008067          	ret
    11ac:	01c58023          	sb	t3,0(a1)
    11b0:	00170713          	addi	a4,a4,1
    11b4:	fca714e3          	bne	a4,a0,117c <draw_board_tiles+0x2c>
    11b8:	001e8e93          	addi	t4,t4,1
    11bc:	140f0f13          	addi	t5,t5,320
    11c0:	faae98e3          	bne	t4,a0,1170 <draw_board_tiles+0x20>
    11c4:	00008067          	ret

000011c8 <draw_piece_at>:
    11c8:	00061463          	bnez	a2,11d0 <draw_piece_at+0x8>
    11cc:	00008067          	ret
    11d0:	ff010113          	addi	sp,sp,-16
    11d4:	00459793          	slli	a5,a1,0x4
    11d8:	01212023          	sw	s2,0(sp)
    11dc:	40b787b3          	sub	a5,a5,a1
    11e0:	00050913          	mv	s2,a0
    11e4:	00060513          	mv	a0,a2
    11e8:	00812423          	sw	s0,8(sp)
    11ec:	00912223          	sw	s1,4(sp)
    11f0:	00112623          	sw	ra,12(sp)
    11f4:	00058493          	mv	s1,a1
    11f8:	00179413          	slli	s0,a5,0x1
    11fc:	494010ef          	jal	2690 <get_piece_sprite>
    1200:	06050063          	beqz	a0,1260 <draw_piece_at+0x98>
    1204:	000027b7          	lui	a5,0x2
    1208:	58078793          	addi	a5,a5,1408 # 2580 <handle_exception+0x164>
    120c:	02f48e33          	mul	t3,s1,a5
    1210:	00491793          	slli	a5,s2,0x4
    1214:	40f907b3          	sub	a5,s2,a5
    1218:	00179793          	slli	a5,a5,0x1
    121c:	38478713          	addi	a4,a5,900
    1220:	00f50633          	add	a2,a0,a5
    1224:	00e50eb3          	add	t4,a0,a4
    1228:	02800f93          	li	t6,40
    122c:	04600513          	li	a0,70
    1230:	00040313          	mv	t1,s0
    1234:	40ff8fb3          	sub	t6,t6,a5
    1238:	40f50533          	sub	a0,a0,a5
    123c:	0ef00f13          	li	t5,239
    1240:	13f00813          	li	a6,319
    1244:	0e300893          	li	a7,227
    1248:	080002b7          	lui	t0,0x8000
    124c:	026f7663          	bgeu	t5,t1,1278 <draw_piece_at+0xb0>
    1250:	01e60613          	addi	a2,a2,30
    1254:	00130313          	addi	t1,t1,1 # 80000001 <_stack_end+0x7fefab81>
    1258:	140e0e13          	addi	t3,t3,320
    125c:	ffd618e3          	bne	a2,t4,124c <draw_piece_at+0x84>
    1260:	00c12083          	lw	ra,12(sp)
    1264:	00812403          	lw	s0,8(sp)
    1268:	00412483          	lw	s1,4(sp)
    126c:	00012903          	lw	s2,0(sp)
    1270:	01010113          	addi	sp,sp,16
    1274:	00008067          	ret
    1278:	000f8793          	mv	a5,t6
    127c:	005e05b3          	add	a1,t3,t0
    1280:	00f60733          	add	a4,a2,a5
    1284:	00f586b3          	add	a3,a1,a5
    1288:	00f86863          	bltu	a6,a5,1298 <draw_piece_at+0xd0>
    128c:	fd874703          	lbu	a4,-40(a4)
    1290:	01170463          	beq	a4,a7,1298 <draw_piece_at+0xd0>
    1294:	00e68023          	sb	a4,0(a3)
    1298:	00178793          	addi	a5,a5,1
    129c:	fea792e3          	bne	a5,a0,1280 <draw_piece_at+0xb8>
    12a0:	fb1ff06f          	j	1250 <draw_piece_at+0x88>

000012a4 <redraw_board_and_pieces>:
    12a4:	fd010113          	addi	sp,sp,-48
    12a8:	08000fb7          	lui	t6,0x8000
    12ac:	02112623          	sw	ra,44(sp)
    12b0:	02812423          	sw	s0,40(sp)
    12b4:	02912223          	sw	s1,36(sp)
    12b8:	03212023          	sw	s2,32(sp)
    12bc:	01312e23          	sw	s3,28(sp)
    12c0:	01412c23          	sw	s4,24(sp)
    12c4:	01512a23          	sw	s5,20(sp)
    12c8:	01612823          	sw	s6,16(sp)
    12cc:	01712623          	sw	s7,12(sp)
    12d0:	00000f13          	li	t5,0
    12d4:	00000e93          	li	t4,0
    12d8:	01e00313          	li	t1,30
    12dc:	028f8f93          	addi	t6,t6,40 # 8000028 <_stack_end+0x7efaba8>
    12e0:	fdb00513          	li	a0,-37
    12e4:	0f000713          	li	a4,240
    12e8:	04900593          	li	a1,73
    12ec:	026ece33          	div	t3,t4,t1
    12f0:	00000793          	li	a5,0
    12f4:	01ff08b3          	add	a7,t5,t6
    12f8:	00f88633          	add	a2,a7,a5
    12fc:	0267c833          	div	a6,a5,t1
    1300:	01c80833          	add	a6,a6,t3
    1304:	00187813          	andi	a6,a6,1
    1308:	0e080663          	beqz	a6,13f4 <redraw_board_and_pieces+0x150>
    130c:	00b60023          	sb	a1,0(a2)
    1310:	00178793          	addi	a5,a5,1
    1314:	fee792e3          	bne	a5,a4,12f8 <redraw_board_and_pieces+0x54>
    1318:	001e8e93          	addi	t4,t4,1
    131c:	140f0f13          	addi	t5,t5,320
    1320:	fcee96e3          	bne	t4,a4,12ec <redraw_board_and_pieces+0x48>
    1324:	08000937          	lui	s2,0x8000
    1328:	00002bb7          	lui	s7,0x2
    132c:	798b8b93          	addi	s7,s7,1944 # 2798 <board>
    1330:	00000b13          	li	s6,0
    1334:	0e300413          	li	s0,227
    1338:	02890913          	addi	s2,s2,40 # 8000028 <_stack_end+0x7efaba8>
    133c:	0f000a93          	li	s5,240
    1340:	002b1493          	slli	s1,s6,0x2
    1344:	016484b3          	add	s1,s1,s6
    1348:	00649493          	slli	s1,s1,0x6
    134c:	000b8a13          	mv	s4,s7
    1350:	00000993          	li	s3,0
    1354:	0100006f          	j	1364 <redraw_board_and_pieces+0xc0>
    1358:	01e98993          	addi	s3,s3,30
    135c:	001a0a13          	addi	s4,s4,1
    1360:	05598e63          	beq	s3,s5,13bc <redraw_board_and_pieces+0x118>
    1364:	000a4503          	lbu	a0,0(s4)
    1368:	fe0508e3          	beqz	a0,1358 <redraw_board_and_pieces+0xb4>
    136c:	324010ef          	jal	2690 <get_piece_sprite>
    1370:	fe0504e3          	beqz	a0,1358 <redraw_board_and_pieces+0xb4>
    1374:	00998833          	add	a6,s3,s1
    1378:	01e50613          	addi	a2,a0,30
    137c:	40a80833          	sub	a6,a6,a0
    1380:	3a250513          	addi	a0,a0,930
    1384:	fe260793          	addi	a5,a2,-30
    1388:	012805b3          	add	a1,a6,s2
    138c:	0007c703          	lbu	a4,0(a5)
    1390:	00f586b3          	add	a3,a1,a5
    1394:	00178793          	addi	a5,a5,1
    1398:	00870463          	beq	a4,s0,13a0 <redraw_board_and_pieces+0xfc>
    139c:	00e68023          	sb	a4,0(a3)
    13a0:	fef616e3          	bne	a2,a5,138c <redraw_board_and_pieces+0xe8>
    13a4:	01e60613          	addi	a2,a2,30
    13a8:	12280813          	addi	a6,a6,290
    13ac:	fca61ce3          	bne	a2,a0,1384 <redraw_board_and_pieces+0xe0>
    13b0:	01e98993          	addi	s3,s3,30
    13b4:	001a0a13          	addi	s4,s4,1
    13b8:	fb5996e3          	bne	s3,s5,1364 <redraw_board_and_pieces+0xc0>
    13bc:	01eb0b13          	addi	s6,s6,30
    13c0:	008b8b93          	addi	s7,s7,8
    13c4:	f73b1ee3          	bne	s6,s3,1340 <redraw_board_and_pieces+0x9c>
    13c8:	02c12083          	lw	ra,44(sp)
    13cc:	02812403          	lw	s0,40(sp)
    13d0:	02412483          	lw	s1,36(sp)
    13d4:	02012903          	lw	s2,32(sp)
    13d8:	01c12983          	lw	s3,28(sp)
    13dc:	01812a03          	lw	s4,24(sp)
    13e0:	01412a83          	lw	s5,20(sp)
    13e4:	01012b03          	lw	s6,16(sp)
    13e8:	00c12b83          	lw	s7,12(sp)
    13ec:	03010113          	addi	sp,sp,48
    13f0:	00008067          	ret
    13f4:	00a60023          	sb	a0,0(a2)
    13f8:	00178793          	addi	a5,a5,1
    13fc:	eee79ee3          	bne	a5,a4,12f8 <redraw_board_and_pieces+0x54>
    1400:	001e8e93          	addi	t4,t4,1
    1404:	140f0f13          	addi	t5,t5,320
    1408:	eeee92e3          	bne	t4,a4,12ec <redraw_board_and_pieces+0x48>
    140c:	f19ff06f          	j	1324 <redraw_board_and_pieces+0x80>

00001410 <select_tile>:
    1410:	00451793          	slli	a5,a0,0x4
    1414:	40a78533          	sub	a0,a5,a0
    1418:	00151513          	slli	a0,a0,0x1
    141c:	02850713          	addi	a4,a0,40
    1420:	12200793          	li	a5,290
    1424:	08e7e463          	bltu	a5,a4,14ac <select_tile+0x9c>
    1428:	00459793          	slli	a5,a1,0x4
    142c:	40b787b3          	sub	a5,a5,a1
    1430:	00179793          	slli	a5,a5,0x1
    1434:	0d200693          	li	a3,210
    1438:	06f6ea63          	bltu	a3,a5,14ac <select_tile+0x9c>
    143c:	000027b7          	lui	a5,0x2
    1440:	58078793          	addi	a5,a5,1408 # 2580 <handle_exception+0x164>
    1444:	02f585b3          	mul	a1,a1,a5
    1448:	08000837          	lui	a6,0x8000
    144c:	04680813          	addi	a6,a6,70 # 8000046 <_stack_end+0x7efabc6>
    1450:	080007b7          	lui	a5,0x8000
    1454:	000028b7          	lui	a7,0x2
    1458:	fe000693          	li	a3,-32
    145c:	44088893          	addi	a7,a7,1088 # 2440 <handle_exception+0x24>
    1460:	00e58733          	add	a4,a1,a4
    1464:	00e787b3          	add	a5,a5,a4
    1468:	01058833          	add	a6,a1,a6
    146c:	00a80833          	add	a6,a6,a0
    1470:	00078713          	mv	a4,a5
    1474:	00d70023          	sb	a3,0(a4)
    1478:	01170633          	add	a2,a4,a7
    147c:	00d60023          	sb	a3,0(a2)
    1480:	00170713          	addi	a4,a4,1
    1484:	ff0718e3          	bne	a4,a6,1474 <select_tile+0x64>
    1488:	08002737          	lui	a4,0x8002
    148c:	5a870713          	addi	a4,a4,1448 # 80025a8 <_stack_end+0x7efd128>
    1490:	00e585b3          	add	a1,a1,a4
    1494:	00a58733          	add	a4,a1,a0
    1498:	fe000693          	li	a3,-32
    149c:	00d78023          	sb	a3,0(a5) # 8000000 <_stack_end+0x7efab80>
    14a0:	00d78ea3          	sb	a3,29(a5)
    14a4:	14078793          	addi	a5,a5,320
    14a8:	fef71ae3          	bne	a4,a5,149c <select_tile+0x8c>
    14ac:	00008067          	ret

000014b0 <read_switch_square>:
    14b0:	000027b7          	lui	a5,0x2
    14b4:	77c7a783          	lw	a5,1916(a5) # 277c <SW_DATA>
    14b8:	0007a783          	lw	a5,0(a5)
    14bc:	0077f713          	andi	a4,a5,7
    14c0:	4037d793          	srai	a5,a5,0x3
    14c4:	00e52023          	sw	a4,0(a0)
    14c8:	0077f793          	andi	a5,a5,7
    14cc:	00f5a023          	sw	a5,0(a1)
    14d0:	00008067          	ret

000014d4 <update_clock_outputs>:
    14d4:	00002637          	lui	a2,0x2
    14d8:	79462783          	lw	a5,1940(a2) # 2794 <seconds_left>
    14dc:	06300713          	li	a4,99
    14e0:	02f75a63          	bge	a4,a5,1514 <update_clock_outputs+0x40>
    14e4:	06300793          	li	a5,99
    14e8:	00a00693          	li	a3,10
    14ec:	02d7e733          	rem	a4,a5,a3
    14f0:	00900593          	li	a1,9
    14f4:	02d7c7b3          	div	a5,a5,a3
    14f8:	4ce5e863          	bltu	a1,a4,19c8 <update_clock_outputs+0x4f4>
    14fc:	000026b7          	lui	a3,0x2
    1500:	00271713          	slli	a4,a4,0x2
    1504:	7e868693          	addi	a3,a3,2024 # 27e8 <timeoutcount+0x4>
    1508:	00d70733          	add	a4,a4,a3
    150c:	00072703          	lw	a4,0(a4)
    1510:	00070067          	jr	a4
    1514:	fff7c713          	not	a4,a5
    1518:	41f75713          	srai	a4,a4,0x1f
    151c:	00e7f7b3          	and	a5,a5,a4
    1520:	fc9ff06f          	j	14e8 <update_clock_outputs+0x14>
    1524:	04000737          	lui	a4,0x4000
    1528:	09000693          	li	a3,144
    152c:	04d72823          	sw	a3,80(a4) # 4000050 <_stack_end+0x3efabd0>
    1530:	00900713          	li	a4,9
    1534:	48f76263          	bltu	a4,a5,19b8 <update_clock_outputs+0x4e4>
    1538:	00003737          	lui	a4,0x3
    153c:	00279793          	slli	a5,a5,0x2
    1540:	81070713          	addi	a4,a4,-2032 # 2810 <timeoutcount+0x2c>
    1544:	00e787b3          	add	a5,a5,a4
    1548:	0007a783          	lw	a5,0(a5)
    154c:	00078067          	jr	a5
    1550:	040007b7          	lui	a5,0x4000
    1554:	09000713          	li	a4,144
    1558:	06e7a023          	sw	a4,96(a5) # 4000060 <_stack_end+0x3efabe0>
    155c:	00002737          	lui	a4,0x2
    1560:	7d872783          	lw	a5,2008(a4) # 27d8 <zeros.0>
    1564:	00900693          	li	a3,9
    1568:	46f6e863          	bltu	a3,a5,19d8 <update_clock_outputs+0x504>
    156c:	000036b7          	lui	a3,0x3
    1570:	00279793          	slli	a5,a5,0x2
    1574:	83868693          	addi	a3,a3,-1992 # 2838 <timeoutcount+0x54>
    1578:	00d787b3          	add	a5,a5,a3
    157c:	0007a783          	lw	a5,0(a5)
    1580:	00078067          	jr	a5
    1584:	040007b7          	lui	a5,0x4000
    1588:	08000713          	li	a4,128
    158c:	06e7a023          	sw	a4,96(a5) # 4000060 <_stack_end+0x3efabe0>
    1590:	fcdff06f          	j	155c <update_clock_outputs+0x88>
    1594:	040007b7          	lui	a5,0x4000
    1598:	0f800713          	li	a4,248
    159c:	06e7a023          	sw	a4,96(a5) # 4000060 <_stack_end+0x3efabe0>
    15a0:	fbdff06f          	j	155c <update_clock_outputs+0x88>
    15a4:	040007b7          	lui	a5,0x4000
    15a8:	08200713          	li	a4,130
    15ac:	06e7a023          	sw	a4,96(a5) # 4000060 <_stack_end+0x3efabe0>
    15b0:	fadff06f          	j	155c <update_clock_outputs+0x88>
    15b4:	040007b7          	lui	a5,0x4000
    15b8:	09200713          	li	a4,146
    15bc:	06e7a023          	sw	a4,96(a5) # 4000060 <_stack_end+0x3efabe0>
    15c0:	f9dff06f          	j	155c <update_clock_outputs+0x88>
    15c4:	040007b7          	lui	a5,0x4000
    15c8:	09900713          	li	a4,153
    15cc:	06e7a023          	sw	a4,96(a5) # 4000060 <_stack_end+0x3efabe0>
    15d0:	f8dff06f          	j	155c <update_clock_outputs+0x88>
    15d4:	040007b7          	lui	a5,0x4000
    15d8:	0b000713          	li	a4,176
    15dc:	06e7a023          	sw	a4,96(a5) # 4000060 <_stack_end+0x3efabe0>
    15e0:	f7dff06f          	j	155c <update_clock_outputs+0x88>
    15e4:	040007b7          	lui	a5,0x4000
    15e8:	0a400713          	li	a4,164
    15ec:	06e7a023          	sw	a4,96(a5) # 4000060 <_stack_end+0x3efabe0>
    15f0:	f6dff06f          	j	155c <update_clock_outputs+0x88>
    15f4:	040007b7          	lui	a5,0x4000
    15f8:	0f900713          	li	a4,249
    15fc:	06e7a023          	sw	a4,96(a5) # 4000060 <_stack_end+0x3efabe0>
    1600:	f5dff06f          	j	155c <update_clock_outputs+0x88>
    1604:	04000737          	lui	a4,0x4000
    1608:	0f900693          	li	a3,249
    160c:	04d72823          	sw	a3,80(a4) # 4000050 <_stack_end+0x3efabd0>
    1610:	f21ff06f          	j	1530 <update_clock_outputs+0x5c>
    1614:	04000737          	lui	a4,0x4000
    1618:	0a400693          	li	a3,164
    161c:	04d72823          	sw	a3,80(a4) # 4000050 <_stack_end+0x3efabd0>
    1620:	f11ff06f          	j	1530 <update_clock_outputs+0x5c>
    1624:	04000737          	lui	a4,0x4000
    1628:	0b000693          	li	a3,176
    162c:	04d72823          	sw	a3,80(a4) # 4000050 <_stack_end+0x3efabd0>
    1630:	f01ff06f          	j	1530 <update_clock_outputs+0x5c>
    1634:	04000737          	lui	a4,0x4000
    1638:	09900693          	li	a3,153
    163c:	04d72823          	sw	a3,80(a4) # 4000050 <_stack_end+0x3efabd0>
    1640:	ef1ff06f          	j	1530 <update_clock_outputs+0x5c>
    1644:	04000737          	lui	a4,0x4000
    1648:	09200693          	li	a3,146
    164c:	04d72823          	sw	a3,80(a4) # 4000050 <_stack_end+0x3efabd0>
    1650:	ee1ff06f          	j	1530 <update_clock_outputs+0x5c>
    1654:	04000737          	lui	a4,0x4000
    1658:	08200693          	li	a3,130
    165c:	04d72823          	sw	a3,80(a4) # 4000050 <_stack_end+0x3efabd0>
    1660:	ed1ff06f          	j	1530 <update_clock_outputs+0x5c>
    1664:	04000737          	lui	a4,0x4000
    1668:	0f800693          	li	a3,248
    166c:	04d72823          	sw	a3,80(a4) # 4000050 <_stack_end+0x3efabd0>
    1670:	ec1ff06f          	j	1530 <update_clock_outputs+0x5c>
    1674:	04000737          	lui	a4,0x4000
    1678:	08000693          	li	a3,128
    167c:	04d72823          	sw	a3,80(a4) # 4000050 <_stack_end+0x3efabd0>
    1680:	eb1ff06f          	j	1530 <update_clock_outputs+0x5c>
    1684:	040007b7          	lui	a5,0x4000
    1688:	08000693          	li	a3,128
    168c:	06d7a823          	sw	a3,112(a5) # 4000070 <_stack_end+0x3efabf0>
    1690:	7d872783          	lw	a5,2008(a4)
    1694:	00900693          	li	a3,9
    1698:	36f6e263          	bltu	a3,a5,19fc <update_clock_outputs+0x528>
    169c:	000036b7          	lui	a3,0x3
    16a0:	00279793          	slli	a5,a5,0x2
    16a4:	86068693          	addi	a3,a3,-1952 # 2860 <timeoutcount+0x7c>
    16a8:	00d787b3          	add	a5,a5,a3
    16ac:	0007a783          	lw	a5,0(a5)
    16b0:	00078067          	jr	a5
    16b4:	040007b7          	lui	a5,0x4000
    16b8:	08000693          	li	a3,128
    16bc:	08d7a023          	sw	a3,128(a5) # 4000080 <_stack_end+0x3efac00>
    16c0:	7d872783          	lw	a5,2008(a4)
    16c4:	00900693          	li	a3,9
    16c8:	32f6e463          	bltu	a3,a5,19f0 <update_clock_outputs+0x51c>
    16cc:	000036b7          	lui	a3,0x3
    16d0:	00279793          	slli	a5,a5,0x2
    16d4:	88868693          	addi	a3,a3,-1912 # 2888 <timeoutcount+0xa4>
    16d8:	00d787b3          	add	a5,a5,a3
    16dc:	0007a783          	lw	a5,0(a5)
    16e0:	00078067          	jr	a5
    16e4:	040007b7          	lui	a5,0x4000
    16e8:	08000693          	li	a3,128
    16ec:	08d7a823          	sw	a3,144(a5) # 4000090 <_stack_end+0x3efac10>
    16f0:	7d872783          	lw	a5,2008(a4)
    16f4:	00900713          	li	a4,9
    16f8:	2ef76663          	bltu	a4,a5,19e4 <update_clock_outputs+0x510>
    16fc:	00003737          	lui	a4,0x3
    1700:	00279793          	slli	a5,a5,0x2
    1704:	8b070713          	addi	a4,a4,-1872 # 28b0 <timeoutcount+0xcc>
    1708:	00e787b3          	add	a5,a5,a4
    170c:	0007a783          	lw	a5,0(a5)
    1710:	00078067          	jr	a5
    1714:	040007b7          	lui	a5,0x4000
    1718:	08000713          	li	a4,128
    171c:	0ae7a023          	sw	a4,160(a5) # 40000a0 <_stack_end+0x3efac20>
    1720:	79462703          	lw	a4,1940(a2)
    1724:	00a00793          	li	a5,10
    1728:	24e7da63          	bge	a5,a4,197c <update_clock_outputs+0x4a8>
    172c:	040007b7          	lui	a5,0x4000
    1730:	3ff00713          	li	a4,1023
    1734:	00e7a023          	sw	a4,0(a5) # 4000000 <_stack_end+0x3efab80>
    1738:	00008067          	ret
    173c:	040007b7          	lui	a5,0x4000
    1740:	0f800713          	li	a4,248
    1744:	0ae7a023          	sw	a4,160(a5) # 40000a0 <_stack_end+0x3efac20>
    1748:	fd9ff06f          	j	1720 <update_clock_outputs+0x24c>
    174c:	040007b7          	lui	a5,0x4000
    1750:	08200713          	li	a4,130
    1754:	0ae7a023          	sw	a4,160(a5) # 40000a0 <_stack_end+0x3efac20>
    1758:	fc9ff06f          	j	1720 <update_clock_outputs+0x24c>
    175c:	040007b7          	lui	a5,0x4000
    1760:	09200713          	li	a4,146
    1764:	0ae7a023          	sw	a4,160(a5) # 40000a0 <_stack_end+0x3efac20>
    1768:	fb9ff06f          	j	1720 <update_clock_outputs+0x24c>
    176c:	040007b7          	lui	a5,0x4000
    1770:	09900713          	li	a4,153
    1774:	0ae7a023          	sw	a4,160(a5) # 40000a0 <_stack_end+0x3efac20>
    1778:	fa9ff06f          	j	1720 <update_clock_outputs+0x24c>
    177c:	040007b7          	lui	a5,0x4000
    1780:	0b000713          	li	a4,176
    1784:	0ae7a023          	sw	a4,160(a5) # 40000a0 <_stack_end+0x3efac20>
    1788:	f99ff06f          	j	1720 <update_clock_outputs+0x24c>
    178c:	040007b7          	lui	a5,0x4000
    1790:	0a400713          	li	a4,164
    1794:	0ae7a023          	sw	a4,160(a5) # 40000a0 <_stack_end+0x3efac20>
    1798:	f89ff06f          	j	1720 <update_clock_outputs+0x24c>
    179c:	040007b7          	lui	a5,0x4000
    17a0:	0f900713          	li	a4,249
    17a4:	0ae7a023          	sw	a4,160(a5) # 40000a0 <_stack_end+0x3efac20>
    17a8:	f79ff06f          	j	1720 <update_clock_outputs+0x24c>
    17ac:	040007b7          	lui	a5,0x4000
    17b0:	0c000713          	li	a4,192
    17b4:	0ae7a023          	sw	a4,160(a5) # 40000a0 <_stack_end+0x3efac20>
    17b8:	f69ff06f          	j	1720 <update_clock_outputs+0x24c>
    17bc:	040007b7          	lui	a5,0x4000
    17c0:	09000713          	li	a4,144
    17c4:	0ae7a023          	sw	a4,160(a5) # 40000a0 <_stack_end+0x3efac20>
    17c8:	f59ff06f          	j	1720 <update_clock_outputs+0x24c>
    17cc:	040007b7          	lui	a5,0x4000
    17d0:	0f800693          	li	a3,248
    17d4:	08d7a823          	sw	a3,144(a5) # 4000090 <_stack_end+0x3efac10>
    17d8:	f19ff06f          	j	16f0 <update_clock_outputs+0x21c>
    17dc:	040007b7          	lui	a5,0x4000
    17e0:	08200693          	li	a3,130
    17e4:	08d7a823          	sw	a3,144(a5) # 4000090 <_stack_end+0x3efac10>
    17e8:	f09ff06f          	j	16f0 <update_clock_outputs+0x21c>
    17ec:	040007b7          	lui	a5,0x4000
    17f0:	09200693          	li	a3,146
    17f4:	08d7a823          	sw	a3,144(a5) # 4000090 <_stack_end+0x3efac10>
    17f8:	ef9ff06f          	j	16f0 <update_clock_outputs+0x21c>
    17fc:	040007b7          	lui	a5,0x4000
    1800:	09900693          	li	a3,153
    1804:	08d7a823          	sw	a3,144(a5) # 4000090 <_stack_end+0x3efac10>
    1808:	ee9ff06f          	j	16f0 <update_clock_outputs+0x21c>
    180c:	040007b7          	lui	a5,0x4000
    1810:	0b000693          	li	a3,176
    1814:	08d7a823          	sw	a3,144(a5) # 4000090 <_stack_end+0x3efac10>
    1818:	ed9ff06f          	j	16f0 <update_clock_outputs+0x21c>
    181c:	040007b7          	lui	a5,0x4000
    1820:	0a400693          	li	a3,164
    1824:	08d7a823          	sw	a3,144(a5) # 4000090 <_stack_end+0x3efac10>
    1828:	ec9ff06f          	j	16f0 <update_clock_outputs+0x21c>
    182c:	040007b7          	lui	a5,0x4000
    1830:	0f900693          	li	a3,249
    1834:	08d7a823          	sw	a3,144(a5) # 4000090 <_stack_end+0x3efac10>
    1838:	eb9ff06f          	j	16f0 <update_clock_outputs+0x21c>
    183c:	040007b7          	lui	a5,0x4000
    1840:	0c000693          	li	a3,192
    1844:	08d7a823          	sw	a3,144(a5) # 4000090 <_stack_end+0x3efac10>
    1848:	ea9ff06f          	j	16f0 <update_clock_outputs+0x21c>
    184c:	040007b7          	lui	a5,0x4000
    1850:	09000693          	li	a3,144
    1854:	08d7a823          	sw	a3,144(a5) # 4000090 <_stack_end+0x3efac10>
    1858:	e99ff06f          	j	16f0 <update_clock_outputs+0x21c>
    185c:	040007b7          	lui	a5,0x4000
    1860:	0f800693          	li	a3,248
    1864:	08d7a023          	sw	a3,128(a5) # 4000080 <_stack_end+0x3efac00>
    1868:	e59ff06f          	j	16c0 <update_clock_outputs+0x1ec>
    186c:	040007b7          	lui	a5,0x4000
    1870:	08200693          	li	a3,130
    1874:	08d7a023          	sw	a3,128(a5) # 4000080 <_stack_end+0x3efac00>
    1878:	e49ff06f          	j	16c0 <update_clock_outputs+0x1ec>
    187c:	040007b7          	lui	a5,0x4000
    1880:	09200693          	li	a3,146
    1884:	08d7a023          	sw	a3,128(a5) # 4000080 <_stack_end+0x3efac00>
    1888:	e39ff06f          	j	16c0 <update_clock_outputs+0x1ec>
    188c:	040007b7          	lui	a5,0x4000
    1890:	09900693          	li	a3,153
    1894:	08d7a023          	sw	a3,128(a5) # 4000080 <_stack_end+0x3efac00>
    1898:	e29ff06f          	j	16c0 <update_clock_outputs+0x1ec>
    189c:	040007b7          	lui	a5,0x4000
    18a0:	0b000693          	li	a3,176
    18a4:	08d7a023          	sw	a3,128(a5) # 4000080 <_stack_end+0x3efac00>
    18a8:	e19ff06f          	j	16c0 <update_clock_outputs+0x1ec>
    18ac:	040007b7          	lui	a5,0x4000
    18b0:	0a400693          	li	a3,164
    18b4:	08d7a023          	sw	a3,128(a5) # 4000080 <_stack_end+0x3efac00>
    18b8:	e09ff06f          	j	16c0 <update_clock_outputs+0x1ec>
    18bc:	040007b7          	lui	a5,0x4000
    18c0:	0f900693          	li	a3,249
    18c4:	08d7a023          	sw	a3,128(a5) # 4000080 <_stack_end+0x3efac00>
    18c8:	df9ff06f          	j	16c0 <update_clock_outputs+0x1ec>
    18cc:	040007b7          	lui	a5,0x4000
    18d0:	0c000693          	li	a3,192
    18d4:	08d7a023          	sw	a3,128(a5) # 4000080 <_stack_end+0x3efac00>
    18d8:	de9ff06f          	j	16c0 <update_clock_outputs+0x1ec>
    18dc:	040007b7          	lui	a5,0x4000
    18e0:	09000693          	li	a3,144
    18e4:	08d7a023          	sw	a3,128(a5) # 4000080 <_stack_end+0x3efac00>
    18e8:	dd9ff06f          	j	16c0 <update_clock_outputs+0x1ec>
    18ec:	040007b7          	lui	a5,0x4000
    18f0:	0f800693          	li	a3,248
    18f4:	06d7a823          	sw	a3,112(a5) # 4000070 <_stack_end+0x3efabf0>
    18f8:	d99ff06f          	j	1690 <update_clock_outputs+0x1bc>
    18fc:	040007b7          	lui	a5,0x4000
    1900:	08200693          	li	a3,130
    1904:	06d7a823          	sw	a3,112(a5) # 4000070 <_stack_end+0x3efabf0>
    1908:	d89ff06f          	j	1690 <update_clock_outputs+0x1bc>
    190c:	040007b7          	lui	a5,0x4000
    1910:	09200693          	li	a3,146
    1914:	06d7a823          	sw	a3,112(a5) # 4000070 <_stack_end+0x3efabf0>
    1918:	d79ff06f          	j	1690 <update_clock_outputs+0x1bc>
    191c:	040007b7          	lui	a5,0x4000
    1920:	09900693          	li	a3,153
    1924:	06d7a823          	sw	a3,112(a5) # 4000070 <_stack_end+0x3efabf0>
    1928:	d69ff06f          	j	1690 <update_clock_outputs+0x1bc>
    192c:	040007b7          	lui	a5,0x4000
    1930:	0b000693          	li	a3,176
    1934:	06d7a823          	sw	a3,112(a5) # 4000070 <_stack_end+0x3efabf0>
    1938:	d59ff06f          	j	1690 <update_clock_outputs+0x1bc>
    193c:	040007b7          	lui	a5,0x4000
    1940:	0a400693          	li	a3,164
    1944:	06d7a823          	sw	a3,112(a5) # 4000070 <_stack_end+0x3efabf0>
    1948:	d49ff06f          	j	1690 <update_clock_outputs+0x1bc>
    194c:	040007b7          	lui	a5,0x4000
    1950:	0f900693          	li	a3,249
    1954:	06d7a823          	sw	a3,112(a5) # 4000070 <_stack_end+0x3efabf0>
    1958:	d39ff06f          	j	1690 <update_clock_outputs+0x1bc>
    195c:	040007b7          	lui	a5,0x4000
    1960:	0c000693          	li	a3,192
    1964:	06d7a823          	sw	a3,112(a5) # 4000070 <_stack_end+0x3efabf0>
    1968:	d29ff06f          	j	1690 <update_clock_outputs+0x1bc>
    196c:	040007b7          	lui	a5,0x4000
    1970:	09000693          	li	a3,144
    1974:	06d7a823          	sw	a3,112(a5) # 4000070 <_stack_end+0x3efabf0>
    1978:	d19ff06f          	j	1690 <update_clock_outputs+0x1bc>
    197c:	79462783          	lw	a5,1940(a2)
    1980:	0207c663          	bltz	a5,19ac <update_clock_outputs+0x4d8>
    1984:	79462783          	lw	a5,1940(a2)
    1988:	00078c63          	beqz	a5,19a0 <update_clock_outputs+0x4cc>
    198c:	79462703          	lw	a4,1940(a2)
    1990:	fff00793          	li	a5,-1
    1994:	00e797b3          	sll	a5,a5,a4
    1998:	fff7c793          	not	a5,a5
    199c:	3ff7f793          	andi	a5,a5,1023
    19a0:	04000737          	lui	a4,0x4000
    19a4:	00f72023          	sw	a5,0(a4) # 4000000 <_stack_end+0x3efab80>
    19a8:	00008067          	ret
    19ac:	040007b7          	lui	a5,0x4000
    19b0:	0007a023          	sw	zero,0(a5) # 4000000 <_stack_end+0x3efab80>
    19b4:	00008067          	ret
    19b8:	040007b7          	lui	a5,0x4000
    19bc:	0c000713          	li	a4,192
    19c0:	06e7a023          	sw	a4,96(a5) # 4000060 <_stack_end+0x3efabe0>
    19c4:	b99ff06f          	j	155c <update_clock_outputs+0x88>
    19c8:	04000737          	lui	a4,0x4000
    19cc:	0c000693          	li	a3,192
    19d0:	04d72823          	sw	a3,80(a4) # 4000050 <_stack_end+0x3efabd0>
    19d4:	b5dff06f          	j	1530 <update_clock_outputs+0x5c>
    19d8:	040007b7          	lui	a5,0x4000
    19dc:	0607a823          	sw	zero,112(a5) # 4000070 <_stack_end+0x3efabf0>
    19e0:	cb1ff06f          	j	1690 <update_clock_outputs+0x1bc>
    19e4:	040007b7          	lui	a5,0x4000
    19e8:	0a07a023          	sw	zero,160(a5) # 40000a0 <_stack_end+0x3efac20>
    19ec:	d35ff06f          	j	1720 <update_clock_outputs+0x24c>
    19f0:	040007b7          	lui	a5,0x4000
    19f4:	0807a823          	sw	zero,144(a5) # 4000090 <_stack_end+0x3efac10>
    19f8:	cf9ff06f          	j	16f0 <update_clock_outputs+0x21c>
    19fc:	040007b7          	lui	a5,0x4000
    1a00:	0807a023          	sw	zero,128(a5) # 4000080 <_stack_end+0x3efac00>
    1a04:	cbdff06f          	j	16c0 <update_clock_outputs+0x1ec>

00001a08 <labinit>:
    1a08:	000027b7          	lui	a5,0x2
    1a0c:	7647a703          	lw	a4,1892(a5) # 2764 <TMR_STATUS>
    1a10:	ff010113          	addi	sp,sp,-16
    1a14:	000027b7          	lui	a5,0x2
    1a18:	00112623          	sw	ra,12(sp)
    1a1c:	75c7a603          	lw	a2,1884(a5) # 275c <TMR_PERIODL>
    1a20:	000027b7          	lui	a5,0x2
    1a24:	7587a683          	lw	a3,1880(a5) # 2758 <TMR_PERIODH>
    1a28:	00072023          	sw	zero,0(a4)
    1a2c:	0000c7b7          	lui	a5,0xc
    1a30:	00002737          	lui	a4,0x2
    1a34:	76072703          	lw	a4,1888(a4) # 2760 <TMR_CONTROL>
    1a38:	6bf78793          	addi	a5,a5,1727 # c6bf <WSoldier+0x770b>
    1a3c:	00f62023          	sw	a5,0(a2)
    1a40:	02d00793          	li	a5,45
    1a44:	00f6a023          	sw	a5,0(a3)
    1a48:	00700793          	li	a5,7
    1a4c:	00f72023          	sw	a5,0(a4)
    1a50:	000027b7          	lui	a5,0x2
    1a54:	7e07a223          	sw	zero,2020(a5) # 27e4 <timeoutcount>
    1a58:	03c00713          	li	a4,60
    1a5c:	000027b7          	lui	a5,0x2
    1a60:	78e7aa23          	sw	a4,1940(a5) # 2794 <seconds_left>
    1a64:	a71ff0ef          	jal	14d4 <update_clock_outputs>
    1a68:	000027b7          	lui	a5,0x2
    1a6c:	7787a703          	lw	a4,1912(a5) # 2778 <SW_MASK>
    1a70:	000027b7          	lui	a5,0x2
    1a74:	7747a603          	lw	a2,1908(a5) # 2774 <SW_EDGECAP>
    1a78:	000027b7          	lui	a5,0x2
    1a7c:	76c7a683          	lw	a3,1900(a5) # 276c <BTN_MASK>
    1a80:	03f00793          	li	a5,63
    1a84:	00f72023          	sw	a5,0(a4)
    1a88:	00002737          	lui	a4,0x2
    1a8c:	76872703          	lw	a4,1896(a4) # 2768 <BTN_EDGECAP>
    1a90:	00f62023          	sw	a5,0(a2)
    1a94:	00100793          	li	a5,1
    1a98:	00c12083          	lw	ra,12(sp)
    1a9c:	00f6a023          	sw	a5,0(a3)
    1aa0:	00f72023          	sw	a5,0(a4)
    1aa4:	01010113          	addi	sp,sp,16
    1aa8:	eccfe06f          	j	174 <enable_interrupt>

00001aac <handle_interrupt>:
    1aac:	fb010113          	addi	sp,sp,-80
    1ab0:	04112623          	sw	ra,76(sp)
    1ab4:	01000793          	li	a5,16
    1ab8:	10f50263          	beq	a0,a5,1bbc <handle_interrupt+0x110>
    1abc:	01100793          	li	a5,17
    1ac0:	18f50063          	beq	a0,a5,1c40 <handle_interrupt+0x194>
    1ac4:	01200793          	li	a5,18
    1ac8:	00f50863          	beq	a0,a5,1ad8 <handle_interrupt+0x2c>
    1acc:	04c12083          	lw	ra,76(sp)
    1ad0:	05010113          	addi	sp,sp,80
    1ad4:	00008067          	ret
    1ad8:	000027b7          	lui	a5,0x2
    1adc:	7687a783          	lw	a5,1896(a5) # 2768 <BTN_EDGECAP>
    1ae0:	00002737          	lui	a4,0x2
    1ae4:	77072703          	lw	a4,1904(a4) # 2770 <BTN_DATA>
    1ae8:	0007a683          	lw	a3,0(a5)
    1aec:	00d7a023          	sw	a3,0(a5)
    1af0:	00072783          	lw	a5,0(a4)
    1af4:	0017f793          	andi	a5,a5,1
    1af8:	12078e63          	beqz	a5,1c34 <handle_interrupt+0x188>
    1afc:	000027b7          	lui	a5,0x2
    1b00:	7e07a703          	lw	a4,2016(a5) # 27e0 <btn_down>
    1b04:	fc0714e3          	bnez	a4,1acc <handle_interrupt+0x20>
    1b08:	04912223          	sw	s1,68(sp)
    1b0c:	000024b7          	lui	s1,0x2
    1b10:	04812423          	sw	s0,72(sp)
    1b14:	7904a403          	lw	s0,1936(s1) # 2790 <sel_file>
    1b18:	00100713          	li	a4,1
    1b1c:	7ee7a023          	sw	a4,2016(a5)
    1b20:	00700793          	li	a5,7
    1b24:	2087ec63          	bltu	a5,s0,1d3c <handle_interrupt+0x290>
    1b28:	05212023          	sw	s2,64(sp)
    1b2c:	00002937          	lui	s2,0x2
    1b30:	03312e23          	sw	s3,60(sp)
    1b34:	78c92983          	lw	s3,1932(s2) # 278c <sel_rank>
    1b38:	2537ea63          	bltu	a5,s3,1d8c <handle_interrupt+0x2e0>
    1b3c:	03412c23          	sw	s4,56(sp)
    1b40:	00002a37          	lui	s4,0x2
    1b44:	7dca2783          	lw	a5,2012(s4) # 27dc <piece_selected>
    1b48:	18079463          	bnez	a5,1cd0 <handle_interrupt+0x224>
    1b4c:	00002737          	lui	a4,0x2
    1b50:	00399693          	slli	a3,s3,0x3
    1b54:	79870713          	addi	a4,a4,1944 # 2798 <board>
    1b58:	00d70733          	add	a4,a4,a3
    1b5c:	00870733          	add	a4,a4,s0
    1b60:	00074703          	lbu	a4,0(a4)
    1b64:	04070063          	beqz	a4,1ba4 <handle_interrupt+0xf8>
    1b68:	000026b7          	lui	a3,0x2
    1b6c:	7886a683          	lw	a3,1928(a3) # 2788 <white_to_move>
    1b70:	24068463          	beqz	a3,1db8 <handle_interrupt+0x30c>
    1b74:	00100693          	li	a3,1
    1b78:	48d70e63          	beq	a4,a3,2014 <handle_interrupt+0x568>
    1b7c:	00400693          	li	a3,4
    1b80:	4ad70863          	beq	a4,a3,2030 <handle_interrupt+0x584>
    1b84:	00200693          	li	a3,2
    1b88:	4ed70063          	beq	a4,a3,2068 <handle_interrupt+0x5bc>
    1b8c:	00300693          	li	a3,3
    1b90:	52d70e63          	beq	a4,a3,20cc <handle_interrupt+0x620>
    1b94:	00500693          	li	a3,5
    1b98:	54d70863          	beq	a4,a3,20e8 <handle_interrupt+0x63c>
    1b9c:	00600693          	li	a3,6
    1ba0:	58d70663          	beq	a4,a3,212c <handle_interrupt+0x680>
    1ba4:	04812403          	lw	s0,72(sp)
    1ba8:	04412483          	lw	s1,68(sp)
    1bac:	04012903          	lw	s2,64(sp)
    1bb0:	03c12983          	lw	s3,60(sp)
    1bb4:	03812a03          	lw	s4,56(sp)
    1bb8:	f15ff06f          	j	1acc <handle_interrupt+0x20>
    1bbc:	000027b7          	lui	a5,0x2
    1bc0:	7647a783          	lw	a5,1892(a5) # 2764 <TMR_STATUS>
    1bc4:	04812423          	sw	s0,72(sp)
    1bc8:	00002437          	lui	s0,0x2
    1bcc:	0007a023          	sw	zero,0(a5)
    1bd0:	7e442783          	lw	a5,2020(s0) # 27e4 <timeoutcount>
    1bd4:	00900713          	li	a4,9
    1bd8:	00178793          	addi	a5,a5,1
    1bdc:	7ef42223          	sw	a5,2020(s0)
    1be0:	7e442783          	lw	a5,2020(s0)
    1be4:	04f75063          	bge	a4,a5,1c24 <handle_interrupt+0x178>
    1be8:	04912223          	sw	s1,68(sp)
    1bec:	7e042223          	sw	zero,2020(s0)
    1bf0:	000024b7          	lui	s1,0x2
    1bf4:	7944a783          	lw	a5,1940(s1) # 2794 <seconds_left>
    1bf8:	00f05863          	blez	a5,1c08 <handle_interrupt+0x15c>
    1bfc:	7944a783          	lw	a5,1940(s1)
    1c00:	fff78793          	addi	a5,a5,-1
    1c04:	78f4aa23          	sw	a5,1940(s1)
    1c08:	7944a783          	lw	a5,1940(s1)
    1c0c:	12f05e63          	blez	a5,1d48 <handle_interrupt+0x29c>
    1c10:	04812403          	lw	s0,72(sp)
    1c14:	04412483          	lw	s1,68(sp)
    1c18:	04c12083          	lw	ra,76(sp)
    1c1c:	05010113          	addi	sp,sp,80
    1c20:	8b5ff06f          	j	14d4 <update_clock_outputs>
    1c24:	04812403          	lw	s0,72(sp)
    1c28:	04c12083          	lw	ra,76(sp)
    1c2c:	05010113          	addi	sp,sp,80
    1c30:	00008067          	ret
    1c34:	000027b7          	lui	a5,0x2
    1c38:	7e07a023          	sw	zero,2016(a5) # 27e0 <btn_down>
    1c3c:	e91ff06f          	j	1acc <handle_interrupt+0x20>
    1c40:	000027b7          	lui	a5,0x2
    1c44:	7747a783          	lw	a5,1908(a5) # 2774 <SW_EDGECAP>
    1c48:	04812423          	sw	s0,72(sp)
    1c4c:	03f00713          	li	a4,63
    1c50:	00e7a023          	sw	a4,0(a5)
    1c54:	00810593          	addi	a1,sp,8
    1c58:	00410513          	addi	a0,sp,4
    1c5c:	855ff0ef          	jal	14b0 <read_switch_square>
    1c60:	00812403          	lw	s0,8(sp)
    1c64:	00412703          	lw	a4,4(sp)
    1c68:	00700793          	li	a5,7
    1c6c:	40878433          	sub	s0,a5,s0
    1c70:	008766b3          	or	a3,a4,s0
    1c74:	fad7e8e3          	bltu	a5,a3,1c24 <handle_interrupt+0x178>
    1c78:	04912223          	sw	s1,68(sp)
    1c7c:	000024b7          	lui	s1,0x2
    1c80:	7904a783          	lw	a5,1936(s1) # 2790 <sel_file>
    1c84:	05212023          	sw	s2,64(sp)
    1c88:	00002937          	lui	s2,0x2
    1c8c:	00f71663          	bne	a4,a5,1c98 <handle_interrupt+0x1ec>
    1c90:	78c92783          	lw	a5,1932(s2) # 278c <sel_rank>
    1c94:	28878463          	beq	a5,s0,1f1c <handle_interrupt+0x470>
    1c98:	e0cff0ef          	jal	12a4 <redraw_board_and_pieces>
    1c9c:	000027b7          	lui	a5,0x2
    1ca0:	7dc7a783          	lw	a5,2012(a5) # 27dc <piece_selected>
    1ca4:	0e079e63          	bnez	a5,1da0 <handle_interrupt+0x2f4>
    1ca8:	00412503          	lw	a0,4(sp)
    1cac:	00040593          	mv	a1,s0
    1cb0:	f60ff0ef          	jal	1410 <select_tile>
    1cb4:	00412783          	lw	a5,4(sp)
    1cb8:	78892623          	sw	s0,1932(s2)
    1cbc:	04812403          	lw	s0,72(sp)
    1cc0:	78f4a823          	sw	a5,1936(s1)
    1cc4:	04012903          	lw	s2,64(sp)
    1cc8:	04412483          	lw	s1,68(sp)
    1ccc:	e01ff06f          	j	1acc <handle_interrupt+0x20>
    1cd0:	03612823          	sw	s6,48(sp)
    1cd4:	00002b37          	lui	s6,0x2
    1cd8:	780b2583          	lw	a1,1920(s6) # 2780 <src_rank>
    1cdc:	03512a23          	sw	s5,52(sp)
    1ce0:	00002ab7          	lui	s5,0x2
    1ce4:	784aa503          	lw	a0,1924(s5) # 2784 <src_file>
    1ce8:	000024b7          	lui	s1,0x2
    1cec:	79848493          	addi	s1,s1,1944 # 2798 <board>
    1cf0:	00359713          	slli	a4,a1,0x3
    1cf4:	00e48733          	add	a4,s1,a4
    1cf8:	00002937          	lui	s2,0x2
    1cfc:	00a70733          	add	a4,a4,a0
    1d00:	78892783          	lw	a5,1928(s2) # 2788 <white_to_move>
    1d04:	00074703          	lbu	a4,0(a4)
    1d08:	00098693          	mv	a3,s3
    1d0c:	00040613          	mv	a2,s0
    1d10:	de1fe0ef          	jal	af0 <legal_move>
    1d14:	20051c63          	bnez	a0,1f2c <handle_interrupt+0x480>
    1d18:	7c0a2e23          	sw	zero,2012(s4)
    1d1c:	04812403          	lw	s0,72(sp)
    1d20:	04412483          	lw	s1,68(sp)
    1d24:	04012903          	lw	s2,64(sp)
    1d28:	03c12983          	lw	s3,60(sp)
    1d2c:	03812a03          	lw	s4,56(sp)
    1d30:	03412a83          	lw	s5,52(sp)
    1d34:	03012b03          	lw	s6,48(sp)
    1d38:	d95ff06f          	j	1acc <handle_interrupt+0x20>
    1d3c:	04812403          	lw	s0,72(sp)
    1d40:	04412483          	lw	s1,68(sp)
    1d44:	d89ff06f          	j	1acc <handle_interrupt+0x20>
    1d48:	7804aa23          	sw	zero,1940(s1)
    1d4c:	f88ff0ef          	jal	14d4 <update_clock_outputs>
    1d50:	000026b7          	lui	a3,0x2
    1d54:	7886a783          	lw	a5,1928(a3) # 2788 <white_to_move>
    1d58:	fff00713          	li	a4,-1
    1d5c:	03c00613          	li	a2,60
    1d60:	0017b793          	seqz	a5,a5
    1d64:	78f6a423          	sw	a5,1928(a3)
    1d68:	000027b7          	lui	a5,0x2
    1d6c:	7c07ae23          	sw	zero,2012(a5) # 27dc <piece_selected>
    1d70:	000027b7          	lui	a5,0x2
    1d74:	78c4aa23          	sw	a2,1940(s1)
    1d78:	78e7a223          	sw	a4,1924(a5) # 2784 <src_file>
    1d7c:	000027b7          	lui	a5,0x2
    1d80:	78e7a023          	sw	a4,1920(a5) # 2780 <src_rank>
    1d84:	7e042223          	sw	zero,2020(s0)
    1d88:	e89ff06f          	j	1c10 <handle_interrupt+0x164>
    1d8c:	04812403          	lw	s0,72(sp)
    1d90:	04412483          	lw	s1,68(sp)
    1d94:	04012903          	lw	s2,64(sp)
    1d98:	03c12983          	lw	s3,60(sp)
    1d9c:	d31ff06f          	j	1acc <handle_interrupt+0x20>
    1da0:	000027b7          	lui	a5,0x2
    1da4:	7807a583          	lw	a1,1920(a5) # 2780 <src_rank>
    1da8:	000027b7          	lui	a5,0x2
    1dac:	7847a503          	lw	a0,1924(a5) # 2784 <src_file>
    1db0:	e60ff0ef          	jal	1410 <select_tile>
    1db4:	ef5ff06f          	j	1ca8 <handle_interrupt+0x1fc>
    1db8:	00700693          	li	a3,7
    1dbc:	22d70e63          	beq	a4,a3,1ff8 <handle_interrupt+0x54c>
    1dc0:	00a00693          	li	a3,10
    1dc4:	28d70463          	beq	a4,a3,204c <handle_interrupt+0x5a0>
    1dc8:	00800693          	li	a3,8
    1dcc:	2ad70c63          	beq	a4,a3,2084 <handle_interrupt+0x5d8>
    1dd0:	00900693          	li	a3,9
    1dd4:	2cd70e63          	beq	a4,a3,20b0 <handle_interrupt+0x604>
    1dd8:	00b00693          	li	a3,11
    1ddc:	32d70463          	beq	a4,a3,2104 <handle_interrupt+0x658>
    1de0:	00c00693          	li	a3,12
    1de4:	dcd710e3          	bne	a4,a3,1ba4 <handle_interrupt+0xf8>
    1de8:	00005837          	lui	a6,0x5
    1dec:	000058b7          	lui	a7,0x5
    1df0:	37080813          	addi	a6,a6,880 # 5370 <WSoldier+0x3bc>
    1df4:	06b00613          	li	a2,107
    1df8:	04200713          	li	a4,66
    1dfc:	35088893          	addi	a7,a7,848 # 5350 <WSoldier+0x39c>
    1e00:	00810593          	addi	a1,sp,8
    1e04:	00078693          	mv	a3,a5
    1e08:	00178793          	addi	a5,a5,1
    1e0c:	00f58533          	add	a0,a1,a5
    1e10:	00f885b3          	add	a1,a7,a5
    1e14:	fee50fa3          	sb	a4,-1(a0)
    1e18:	0005c703          	lbu	a4,0(a1)
    1e1c:	fe0712e3          	bnez	a4,1e00 <handle_interrupt+0x354>
    1e20:	03078793          	addi	a5,a5,48
    1e24:	002787b3          	add	a5,a5,sp
    1e28:	00268693          	addi	a3,a3,2
    1e2c:	02000713          	li	a4,32
    1e30:	fce78c23          	sb	a4,-40(a5)
    1e34:	00068793          	mv	a5,a3
    1e38:	00078513          	mv	a0,a5
    1e3c:	00178793          	addi	a5,a5,1
    1e40:	40d78733          	sub	a4,a5,a3
    1e44:	00810593          	addi	a1,sp,8
    1e48:	00f585b3          	add	a1,a1,a5
    1e4c:	00e80733          	add	a4,a6,a4
    1e50:	fec58fa3          	sb	a2,-1(a1)
    1e54:	00074603          	lbu	a2,0(a4)
    1e58:	fe0610e3          	bnez	a2,1e38 <handle_interrupt+0x38c>
    1e5c:	00005837          	lui	a6,0x5
    1e60:	02000613          	li	a2,32
    1e64:	37880813          	addi	a6,a6,888 # 5378 <WSoldier+0x3c4>
    1e68:	40a78733          	sub	a4,a5,a0
    1e6c:	00078593          	mv	a1,a5
    1e70:	00810693          	addi	a3,sp,8
    1e74:	00178793          	addi	a5,a5,1
    1e78:	00f686b3          	add	a3,a3,a5
    1e7c:	00e80733          	add	a4,a6,a4
    1e80:	fec68fa3          	sb	a2,-1(a3)
    1e84:	00074603          	lbu	a2,0(a4)
    1e88:	fe0610e3          	bnez	a2,1e68 <handle_interrupt+0x3bc>
    1e8c:	03078793          	addi	a5,a5,48
    1e90:	002787b3          	add	a5,a5,sp
    1e94:	06140413          	addi	s0,s0,97
    1e98:	fc878c23          	sb	s0,-40(a5)
    1e9c:	03058793          	addi	a5,a1,48
    1ea0:	002785b3          	add	a1,a5,sp
    1ea4:	03800793          	li	a5,56
    1ea8:	413787b3          	sub	a5,a5,s3
    1eac:	fcf58d23          	sb	a5,-38(a1)
    1eb0:	00a00793          	li	a5,10
    1eb4:	00810513          	addi	a0,sp,8
    1eb8:	fcf58da3          	sb	a5,-37(a1)
    1ebc:	fc058e23          	sb	zero,-36(a1)
    1ec0:	938ff0ef          	jal	ff8 <jtag_uart_puts>
    1ec4:	78c92783          	lw	a5,1932(s2)
    1ec8:	7904a703          	lw	a4,1936(s1)
    1ecc:	000029b7          	lui	s3,0x2
    1ed0:	00002437          	lui	s0,0x2
    1ed4:	78f9a023          	sw	a5,1920(s3) # 2780 <src_rank>
    1ed8:	00100793          	li	a5,1
    1edc:	78e42223          	sw	a4,1924(s0) # 2784 <src_file>
    1ee0:	7cfa2e23          	sw	a5,2012(s4)
    1ee4:	bc0ff0ef          	jal	12a4 <redraw_board_and_pieces>
    1ee8:	7809a583          	lw	a1,1920(s3)
    1eec:	78442503          	lw	a0,1924(s0)
    1ef0:	d20ff0ef          	jal	1410 <select_tile>
    1ef4:	04812403          	lw	s0,72(sp)
    1ef8:	78c92583          	lw	a1,1932(s2)
    1efc:	7904a503          	lw	a0,1936(s1)
    1f00:	04012903          	lw	s2,64(sp)
    1f04:	04412483          	lw	s1,68(sp)
    1f08:	03c12983          	lw	s3,60(sp)
    1f0c:	03812a03          	lw	s4,56(sp)
    1f10:	04c12083          	lw	ra,76(sp)
    1f14:	05010113          	addi	sp,sp,80
    1f18:	cf8ff06f          	j	1410 <select_tile>
    1f1c:	04812403          	lw	s0,72(sp)
    1f20:	04412483          	lw	s1,68(sp)
    1f24:	04012903          	lw	s2,64(sp)
    1f28:	ba5ff06f          	j	1acc <handle_interrupt+0x20>
    1f2c:	780b2783          	lw	a5,1920(s6)
    1f30:	784aa603          	lw	a2,1924(s5)
    1f34:	00379793          	slli	a5,a5,0x3
    1f38:	00f48733          	add	a4,s1,a5
    1f3c:	00c70733          	add	a4,a4,a2
    1f40:	00074683          	lbu	a3,0(a4)
    1f44:	02068463          	beqz	a3,1f6c <handle_interrupt+0x4c0>
    1f48:	00399593          	slli	a1,s3,0x3
    1f4c:	00b487b3          	add	a5,s1,a1
    1f50:	00070023          	sb	zero,0(a4)
    1f54:	008787b3          	add	a5,a5,s0
    1f58:	00d78023          	sb	a3,0(a5)
    1f5c:	b48ff0ef          	jal	12a4 <redraw_board_and_pieces>
    1f60:	00098593          	mv	a1,s3
    1f64:	00040513          	mv	a0,s0
    1f68:	ca8ff0ef          	jal	1410 <select_tile>
    1f6c:	78892403          	lw	s0,1928(s2)
    1f70:	000027b7          	lui	a5,0x2
    1f74:	03c00713          	li	a4,60
    1f78:	78e7aa23          	sw	a4,1940(a5) # 2794 <seconds_left>
    1f7c:	00143413          	seqz	s0,s0
    1f80:	000027b7          	lui	a5,0x2
    1f84:	7c0a2e23          	sw	zero,2012(s4)
    1f88:	78892423          	sw	s0,1928(s2)
    1f8c:	7e07a223          	sw	zero,2020(a5) # 27e4 <timeoutcount>
    1f90:	d44ff0ef          	jal	14d4 <update_clock_outputs>
    1f94:	00040513          	mv	a0,s0
    1f98:	eb4fe0ef          	jal	64c <king_in_check>
    1f9c:	d80500e3          	beqz	a0,1d1c <handle_interrupt+0x270>
    1fa0:	78892783          	lw	a5,1928(s2)
    1fa4:	0e078e63          	beqz	a5,20a0 <handle_interrupt+0x5f4>
    1fa8:	00005537          	lui	a0,0x5
    1fac:	38850513          	addi	a0,a0,904 # 5388 <WSoldier+0x3d4>
    1fb0:	848ff0ef          	jal	ff8 <jtag_uart_puts>
    1fb4:	78892503          	lw	a0,1928(s2)
    1fb8:	ebdfe0ef          	jal	e74 <is_checkmate>
    1fbc:	d60500e3          	beqz	a0,1d1c <handle_interrupt+0x270>
    1fc0:	78892783          	lw	a5,1928(s2)
    1fc4:	14078e63          	beqz	a5,2120 <handle_interrupt+0x674>
    1fc8:	00005537          	lui	a0,0x5
    1fcc:	3c050513          	addi	a0,a0,960 # 53c0 <WSoldier+0x40c>
    1fd0:	04812403          	lw	s0,72(sp)
    1fd4:	04412483          	lw	s1,68(sp)
    1fd8:	04012903          	lw	s2,64(sp)
    1fdc:	03c12983          	lw	s3,60(sp)
    1fe0:	03812a03          	lw	s4,56(sp)
    1fe4:	03412a83          	lw	s5,52(sp)
    1fe8:	03012b03          	lw	s6,48(sp)
    1fec:	04c12083          	lw	ra,76(sp)
    1ff0:	05010113          	addi	sp,sp,80
    1ff4:	804ff06f          	j	ff8 <jtag_uart_puts>
    1ff8:	00005837          	lui	a6,0x5
    1ffc:	000058b7          	lui	a7,0x5
    2000:	33880813          	addi	a6,a6,824 # 5338 <WSoldier+0x384>
    2004:	07000613          	li	a2,112
    2008:	04200713          	li	a4,66
    200c:	35088893          	addi	a7,a7,848 # 5350 <WSoldier+0x39c>
    2010:	df1ff06f          	j	1e00 <handle_interrupt+0x354>
    2014:	00005837          	lui	a6,0x5
    2018:	000058b7          	lui	a7,0x5
    201c:	33880813          	addi	a6,a6,824 # 5338 <WSoldier+0x384>
    2020:	07000613          	li	a2,112
    2024:	05700713          	li	a4,87
    2028:	34088893          	addi	a7,a7,832 # 5340 <WSoldier+0x38c>
    202c:	dd5ff06f          	j	1e00 <handle_interrupt+0x354>
    2030:	00005837          	lui	a6,0x5
    2034:	000058b7          	lui	a7,0x5
    2038:	34880813          	addi	a6,a6,840 # 5348 <WSoldier+0x394>
    203c:	07200613          	li	a2,114
    2040:	05700713          	li	a4,87
    2044:	34088893          	addi	a7,a7,832 # 5340 <WSoldier+0x38c>
    2048:	db9ff06f          	j	1e00 <handle_interrupt+0x354>
    204c:	00005837          	lui	a6,0x5
    2050:	000058b7          	lui	a7,0x5
    2054:	34880813          	addi	a6,a6,840 # 5348 <WSoldier+0x394>
    2058:	07200613          	li	a2,114
    205c:	04200713          	li	a4,66
    2060:	35088893          	addi	a7,a7,848 # 5350 <WSoldier+0x39c>
    2064:	d9dff06f          	j	1e00 <handle_interrupt+0x354>
    2068:	00005837          	lui	a6,0x5
    206c:	000058b7          	lui	a7,0x5
    2070:	36080813          	addi	a6,a6,864 # 5360 <WSoldier+0x3ac>
    2074:	06b00613          	li	a2,107
    2078:	05700713          	li	a4,87
    207c:	34088893          	addi	a7,a7,832 # 5340 <WSoldier+0x38c>
    2080:	d81ff06f          	j	1e00 <handle_interrupt+0x354>
    2084:	00005837          	lui	a6,0x5
    2088:	000058b7          	lui	a7,0x5
    208c:	36080813          	addi	a6,a6,864 # 5360 <WSoldier+0x3ac>
    2090:	06b00613          	li	a2,107
    2094:	04200713          	li	a4,66
    2098:	35088893          	addi	a7,a7,848 # 5350 <WSoldier+0x39c>
    209c:	d65ff06f          	j	1e00 <handle_interrupt+0x354>
    20a0:	00005537          	lui	a0,0x5
    20a4:	3a450513          	addi	a0,a0,932 # 53a4 <WSoldier+0x3f0>
    20a8:	f51fe0ef          	jal	ff8 <jtag_uart_puts>
    20ac:	f09ff06f          	j	1fb4 <handle_interrupt+0x508>
    20b0:	00005837          	lui	a6,0x5
    20b4:	000058b7          	lui	a7,0x5
    20b8:	36880813          	addi	a6,a6,872 # 5368 <WSoldier+0x3b4>
    20bc:	06200613          	li	a2,98
    20c0:	04200713          	li	a4,66
    20c4:	35088893          	addi	a7,a7,848 # 5350 <WSoldier+0x39c>
    20c8:	d39ff06f          	j	1e00 <handle_interrupt+0x354>
    20cc:	00005837          	lui	a6,0x5
    20d0:	000058b7          	lui	a7,0x5
    20d4:	36880813          	addi	a6,a6,872 # 5368 <WSoldier+0x3b4>
    20d8:	06200613          	li	a2,98
    20dc:	05700713          	li	a4,87
    20e0:	34088893          	addi	a7,a7,832 # 5340 <WSoldier+0x38c>
    20e4:	d1dff06f          	j	1e00 <handle_interrupt+0x354>
    20e8:	00005837          	lui	a6,0x5
    20ec:	000058b7          	lui	a7,0x5
    20f0:	35880813          	addi	a6,a6,856 # 5358 <WSoldier+0x3a4>
    20f4:	07100613          	li	a2,113
    20f8:	05700713          	li	a4,87
    20fc:	34088893          	addi	a7,a7,832 # 5340 <WSoldier+0x38c>
    2100:	d01ff06f          	j	1e00 <handle_interrupt+0x354>
    2104:	00005837          	lui	a6,0x5
    2108:	000058b7          	lui	a7,0x5
    210c:	35880813          	addi	a6,a6,856 # 5358 <WSoldier+0x3a4>
    2110:	07100613          	li	a2,113
    2114:	04200713          	li	a4,66
    2118:	35088893          	addi	a7,a7,848 # 5350 <WSoldier+0x39c>
    211c:	ce5ff06f          	j	1e00 <handle_interrupt+0x354>
    2120:	00005537          	lui	a0,0x5
    2124:	3dc50513          	addi	a0,a0,988 # 53dc <WSoldier+0x428>
    2128:	ea9ff06f          	j	1fd0 <handle_interrupt+0x524>
    212c:	00005837          	lui	a6,0x5
    2130:	000058b7          	lui	a7,0x5
    2134:	37080813          	addi	a6,a6,880 # 5370 <WSoldier+0x3bc>
    2138:	06b00613          	li	a2,107
    213c:	05700713          	li	a4,87
    2140:	34088893          	addi	a7,a7,832 # 5340 <WSoldier+0x38c>
    2144:	cbdff06f          	j	1e00 <handle_interrupt+0x354>

00002148 <main>:
    2148:	ff010113          	addi	sp,sp,-16
    214c:	00112623          	sw	ra,12(sp)
    2150:	00812423          	sw	s0,8(sp)
    2154:	00912223          	sw	s1,4(sp)
    2158:	fe5fe0ef          	jal	113c <get_framebuffer>
    215c:	00050493          	mv	s1,a0
    2160:	fe5fe0ef          	jal	1144 <get_vga_control>
    2164:	00050413          	mv	s0,a0
    2168:	8a1ff0ef          	jal	1a08 <labinit>
    216c:	000027b7          	lui	a5,0x2
    2170:	79878793          	addi	a5,a5,1944 # 2798 <board>
    2174:	00100713          	li	a4,1
    2178:	00a00813          	li	a6,10
    217c:	00078823          	sb	zero,16(a5)
    2180:	000788a3          	sb	zero,17(a5)
    2184:	00078923          	sb	zero,18(a5)
    2188:	000789a3          	sb	zero,19(a5)
    218c:	00078a23          	sb	zero,20(a5)
    2190:	00078aa3          	sb	zero,21(a5)
    2194:	00078b23          	sb	zero,22(a5)
    2198:	00078ba3          	sb	zero,23(a5)
    219c:	00078c23          	sb	zero,24(a5)
    21a0:	00078ca3          	sb	zero,25(a5)
    21a4:	00078d23          	sb	zero,26(a5)
    21a8:	00078da3          	sb	zero,27(a5)
    21ac:	00078e23          	sb	zero,28(a5)
    21b0:	00078ea3          	sb	zero,29(a5)
    21b4:	00078f23          	sb	zero,30(a5)
    21b8:	00078fa3          	sb	zero,31(a5)
    21bc:	02078023          	sb	zero,32(a5)
    21c0:	020780a3          	sb	zero,33(a5)
    21c4:	02078123          	sb	zero,34(a5)
    21c8:	020781a3          	sb	zero,35(a5)
    21cc:	02078223          	sb	zero,36(a5)
    21d0:	020782a3          	sb	zero,37(a5)
    21d4:	02078323          	sb	zero,38(a5)
    21d8:	020783a3          	sb	zero,39(a5)
    21dc:	02078423          	sb	zero,40(a5)
    21e0:	020784a3          	sb	zero,41(a5)
    21e4:	02078523          	sb	zero,42(a5)
    21e8:	020785a3          	sb	zero,43(a5)
    21ec:	02078623          	sb	zero,44(a5)
    21f0:	020786a3          	sb	zero,45(a5)
    21f4:	02078723          	sb	zero,46(a5)
    21f8:	020787a3          	sb	zero,47(a5)
    21fc:	01078023          	sb	a6,0(a5)
    2200:	00b00e13          	li	t3,11
    2204:	02e78823          	sb	a4,48(a5)
    2208:	02e788a3          	sb	a4,49(a5)
    220c:	02e78923          	sb	a4,50(a5)
    2210:	02e789a3          	sb	a4,51(a5)
    2214:	02e78a23          	sb	a4,52(a5)
    2218:	02e78aa3          	sb	a4,53(a5)
    221c:	02e78b23          	sb	a4,54(a5)
    2220:	02e78ba3          	sb	a4,55(a5)
    2224:	00500713          	li	a4,5
    2228:	00700693          	li	a3,7
    222c:	00800893          	li	a7,8
    2230:	00900313          	li	t1,9
    2234:	00400613          	li	a2,4
    2238:	00200593          	li	a1,2
    223c:	00300513          	li	a0,3
    2240:	01c781a3          	sb	t3,3(a5)
    2244:	02e78da3          	sb	a4,59(a5)
    2248:	00c00e13          	li	t3,12
    224c:	00600713          	li	a4,6
    2250:	011780a3          	sb	a7,1(a5)
    2254:	00678123          	sb	t1,2(a5)
    2258:	01c78223          	sb	t3,4(a5)
    225c:	006782a3          	sb	t1,5(a5)
    2260:	01178323          	sb	a7,6(a5)
    2264:	010783a3          	sb	a6,7(a5)
    2268:	00d78423          	sb	a3,8(a5)
    226c:	00d784a3          	sb	a3,9(a5)
    2270:	00d78523          	sb	a3,10(a5)
    2274:	00d785a3          	sb	a3,11(a5)
    2278:	00d78623          	sb	a3,12(a5)
    227c:	00d786a3          	sb	a3,13(a5)
    2280:	00d78723          	sb	a3,14(a5)
    2284:	00d787a3          	sb	a3,15(a5)
    2288:	02c78c23          	sb	a2,56(a5)
    228c:	02b78ca3          	sb	a1,57(a5)
    2290:	02a78d23          	sb	a0,58(a5)
    2294:	02e78e23          	sb	a4,60(a5)
    2298:	02a78ea3          	sb	a0,61(a5)
    229c:	02b78f23          	sb	a1,62(a5)
    22a0:	02c78fa3          	sb	a2,63(a5)
    22a4:	800ff0ef          	jal	12a4 <redraw_board_and_pieces>
    22a8:	00942223          	sw	s1,4(s0)
    22ac:	00042023          	sw	zero,0(s0)
    22b0:	0000006f          	j	22b0 <main+0x168>

000022b4 <printc>:
    22b4:	04000737          	lui	a4,0x4000
    22b8:	04470713          	addi	a4,a4,68 # 4000044 <_stack_end+0x3efabc4>
    22bc:	000106b7          	lui	a3,0x10
    22c0:	00072783          	lw	a5,0(a4)
    22c4:	fed7eee3          	bltu	a5,a3,22c0 <printc+0xc>
    22c8:	040007b7          	lui	a5,0x4000
    22cc:	04a7a023          	sw	a0,64(a5) # 4000040 <_stack_end+0x3efabc0>
    22d0:	00008067          	ret

000022d4 <print>:
    22d4:	00054603          	lbu	a2,0(a0)
    22d8:	02060863          	beqz	a2,2308 <print+0x34>
    22dc:	04000737          	lui	a4,0x4000
    22e0:	040005b7          	lui	a1,0x4000
    22e4:	04470713          	addi	a4,a4,68 # 4000044 <_stack_end+0x3efabc4>
    22e8:	000106b7          	lui	a3,0x10
    22ec:	04058593          	addi	a1,a1,64 # 4000040 <_stack_end+0x3efabc0>
    22f0:	00072783          	lw	a5,0(a4)
    22f4:	fed7eee3          	bltu	a5,a3,22f0 <print+0x1c>
    22f8:	00c5a023          	sw	a2,0(a1)
    22fc:	00154603          	lbu	a2,1(a0)
    2300:	00150513          	addi	a0,a0,1
    2304:	fe0616e3          	bnez	a2,22f0 <print+0x1c>
    2308:	00008067          	ret

0000230c <print_dec>:
    230c:	3b9ad737          	lui	a4,0x3b9ad
    2310:	040006b7          	lui	a3,0x4000
    2314:	04000337          	lui	t1,0x4000
    2318:	00a00593          	li	a1,10
    231c:	00000793          	li	a5,0
    2320:	a0070713          	addi	a4,a4,-1536 # 3b9aca00 <_stack_end+0x3b8a7580>
    2324:	04468693          	addi	a3,a3,68 # 4000044 <_stack_end+0x3efabc4>
    2328:	00010637          	lui	a2,0x10
    232c:	04030313          	addi	t1,t1,64 # 4000040 <_stack_end+0x3efabc0>
    2330:	00a00893          	li	a7,10
    2334:	04e57063          	bgeu	a0,a4,2374 <print_dec+0x68>
    2338:	02079e63          	bnez	a5,2374 <print_dec+0x68>
    233c:	fff58593          	addi	a1,a1,-1
    2340:	02e57533          	remu	a0,a0,a4
    2344:	03175733          	divu	a4,a4,a7
    2348:	fe0596e3          	bnez	a1,2334 <print_dec+0x28>
    234c:	02079263          	bnez	a5,2370 <print_dec+0x64>
    2350:	04000737          	lui	a4,0x4000
    2354:	04470713          	addi	a4,a4,68 # 4000044 <_stack_end+0x3efabc4>
    2358:	000106b7          	lui	a3,0x10
    235c:	00072783          	lw	a5,0(a4)
    2360:	fed7eee3          	bltu	a5,a3,235c <print_dec+0x50>
    2364:	040007b7          	lui	a5,0x4000
    2368:	03000713          	li	a4,48
    236c:	04e7a023          	sw	a4,64(a5) # 4000040 <_stack_end+0x3efabc0>
    2370:	00008067          	ret
    2374:	02e55833          	divu	a6,a0,a4
    2378:	03080813          	addi	a6,a6,48
    237c:	0ff87813          	zext.b	a6,a6
    2380:	0006a783          	lw	a5,0(a3) # 10000 <WSoldier+0xb04c>
    2384:	fec7eee3          	bltu	a5,a2,2380 <print_dec+0x74>
    2388:	01032023          	sw	a6,0(t1)
    238c:	00100793          	li	a5,1
    2390:	fadff06f          	j	233c <print_dec+0x30>

00002394 <print_hex32>:
    2394:	04000737          	lui	a4,0x4000
    2398:	04470713          	addi	a4,a4,68 # 4000044 <_stack_end+0x3efabc4>
    239c:	000106b7          	lui	a3,0x10
    23a0:	00072783          	lw	a5,0(a4)
    23a4:	fed7eee3          	bltu	a5,a3,23a0 <print_hex32+0xc>
    23a8:	03000693          	li	a3,48
    23ac:	040007b7          	lui	a5,0x4000
    23b0:	04000737          	lui	a4,0x4000
    23b4:	04d7a023          	sw	a3,64(a5) # 4000040 <_stack_end+0x3efabc0>
    23b8:	04470713          	addi	a4,a4,68 # 4000044 <_stack_end+0x3efabc4>
    23bc:	000106b7          	lui	a3,0x10
    23c0:	00072783          	lw	a5,0(a4)
    23c4:	fed7eee3          	bltu	a5,a3,23c0 <print_hex32+0x2c>
    23c8:	04000837          	lui	a6,0x4000
    23cc:	04080813          	addi	a6,a6,64 # 4000040 <_stack_end+0x3efabc0>
    23d0:	04000737          	lui	a4,0x4000
    23d4:	07800793          	li	a5,120
    23d8:	00f82023          	sw	a5,0(a6)
    23dc:	01c00613          	li	a2,28
    23e0:	00900313          	li	t1,9
    23e4:	04470713          	addi	a4,a4,68 # 4000044 <_stack_end+0x3efabc4>
    23e8:	000106b7          	lui	a3,0x10
    23ec:	ffc00893          	li	a7,-4
    23f0:	00c557b3          	srl	a5,a0,a2
    23f4:	00f7f793          	andi	a5,a5,15
    23f8:	03778593          	addi	a1,a5,55
    23fc:	00f36463          	bltu	t1,a5,2404 <print_hex32+0x70>
    2400:	03078593          	addi	a1,a5,48
    2404:	00072783          	lw	a5,0(a4)
    2408:	fed7eee3          	bltu	a5,a3,2404 <print_hex32+0x70>
    240c:	00b82023          	sw	a1,0(a6)
    2410:	ffc60613          	addi	a2,a2,-4 # fffc <WSoldier+0xb048>
    2414:	fd161ee3          	bne	a2,a7,23f0 <print_hex32+0x5c>
    2418:	00008067          	ret

0000241c <handle_exception>:
    241c:	00200793          	li	a5,2
    2420:	18f80863          	beq	a6,a5,25b0 <handle_exception+0x194>
    2424:	00b00793          	li	a5,11
    2428:	12f80063          	beq	a6,a5,2548 <handle_exception+0x12c>
    242c:	04000737          	lui	a4,0x4000
    2430:	14081463          	bnez	a6,2578 <handle_exception+0x15c>
    2434:	04000837          	lui	a6,0x4000
    2438:	00005637          	lui	a2,0x5
    243c:	3f860613          	addi	a2,a2,1016 # 53f8 <WSoldier+0x444>
    2440:	00a00593          	li	a1,10
    2444:	04470713          	addi	a4,a4,68 # 4000044 <_stack_end+0x3efabc4>
    2448:	000106b7          	lui	a3,0x10
    244c:	04080813          	addi	a6,a6,64 # 4000040 <_stack_end+0x3efabc0>
    2450:	00072783          	lw	a5,0(a4)
    2454:	fed7eee3          	bltu	a5,a3,2450 <handle_exception+0x34>
    2458:	00b82023          	sw	a1,0(a6)
    245c:	00164583          	lbu	a1,1(a2)
    2460:	00160613          	addi	a2,a2,1
    2464:	fe0596e3          	bnez	a1,2450 <handle_exception+0x34>
    2468:	04000737          	lui	a4,0x4000
    246c:	04000837          	lui	a6,0x4000
    2470:	00005637          	lui	a2,0x5
    2474:	46c60613          	addi	a2,a2,1132 # 546c <WSoldier+0x4b8>
    2478:	04500593          	li	a1,69
    247c:	04470713          	addi	a4,a4,68 # 4000044 <_stack_end+0x3efabc4>
    2480:	000106b7          	lui	a3,0x10
    2484:	04080813          	addi	a6,a6,64 # 4000040 <_stack_end+0x3efabc0>
    2488:	00072783          	lw	a5,0(a4)
    248c:	fed7eee3          	bltu	a5,a3,2488 <handle_exception+0x6c>
    2490:	00b82023          	sw	a1,0(a6)
    2494:	00164583          	lbu	a1,1(a2)
    2498:	00160613          	addi	a2,a2,1
    249c:	fe0596e3          	bnez	a1,2488 <handle_exception+0x6c>
    24a0:	04000737          	lui	a4,0x4000
    24a4:	04470713          	addi	a4,a4,68 # 4000044 <_stack_end+0x3efabc4>
    24a8:	000106b7          	lui	a3,0x10
    24ac:	00072783          	lw	a5,0(a4)
    24b0:	fed7eee3          	bltu	a5,a3,24ac <handle_exception+0x90>
    24b4:	03000693          	li	a3,48
    24b8:	040007b7          	lui	a5,0x4000
    24bc:	04000737          	lui	a4,0x4000
    24c0:	04d7a023          	sw	a3,64(a5) # 4000040 <_stack_end+0x3efabc0>
    24c4:	04470713          	addi	a4,a4,68 # 4000044 <_stack_end+0x3efabc4>
    24c8:	000106b7          	lui	a3,0x10
    24cc:	00072783          	lw	a5,0(a4)
    24d0:	fed7eee3          	bltu	a5,a3,24cc <handle_exception+0xb0>
    24d4:	04000837          	lui	a6,0x4000
    24d8:	04080813          	addi	a6,a6,64 # 4000040 <_stack_end+0x3efabc0>
    24dc:	04000737          	lui	a4,0x4000
    24e0:	07800793          	li	a5,120
    24e4:	00f82023          	sw	a5,0(a6)
    24e8:	01c00613          	li	a2,28
    24ec:	00900313          	li	t1,9
    24f0:	04470713          	addi	a4,a4,68 # 4000044 <_stack_end+0x3efabc4>
    24f4:	000106b7          	lui	a3,0x10
    24f8:	ffc00893          	li	a7,-4
    24fc:	00c557b3          	srl	a5,a0,a2
    2500:	00f7f793          	andi	a5,a5,15
    2504:	03778593          	addi	a1,a5,55
    2508:	00f36463          	bltu	t1,a5,2510 <handle_exception+0xf4>
    250c:	03078593          	addi	a1,a5,48
    2510:	00072783          	lw	a5,0(a4)
    2514:	fed7eee3          	bltu	a5,a3,2510 <handle_exception+0xf4>
    2518:	00b82023          	sw	a1,0(a6)
    251c:	ffc60613          	addi	a2,a2,-4
    2520:	fd161ee3          	bne	a2,a7,24fc <handle_exception+0xe0>
    2524:	04000737          	lui	a4,0x4000
    2528:	04470713          	addi	a4,a4,68 # 4000044 <_stack_end+0x3efabc4>
    252c:	000106b7          	lui	a3,0x10
    2530:	00072783          	lw	a5,0(a4)
    2534:	fed7eee3          	bltu	a5,a3,2530 <handle_exception+0x114>
    2538:	040007b7          	lui	a5,0x4000
    253c:	00a00713          	li	a4,10
    2540:	04e7a023          	sw	a4,64(a5) # 4000040 <_stack_end+0x3efabc0>
    2544:	0000006f          	j	2544 <handle_exception+0x128>
    2548:	00400793          	li	a5,4
    254c:	0af88063          	beq	a7,a5,25ec <handle_exception+0x1d0>
    2550:	0d089a63          	bne	a7,a6,2624 <handle_exception+0x208>
    2554:	04000737          	lui	a4,0x4000
    2558:	04470713          	addi	a4,a4,68 # 4000044 <_stack_end+0x3efabc4>
    255c:	000106b7          	lui	a3,0x10
    2560:	00072783          	lw	a5,0(a4)
    2564:	fed7eee3          	bltu	a5,a3,2560 <handle_exception+0x144>
    2568:	040007b7          	lui	a5,0x4000
    256c:	0ff57513          	zext.b	a0,a0
    2570:	04a7a023          	sw	a0,64(a5) # 4000040 <_stack_end+0x3efabc0>
    2574:	00008067          	ret
    2578:	04000837          	lui	a6,0x4000
    257c:	00005637          	lui	a2,0x5
    2580:	44c60613          	addi	a2,a2,1100 # 544c <WSoldier+0x498>
    2584:	00a00593          	li	a1,10
    2588:	04470713          	addi	a4,a4,68
    258c:	000106b7          	lui	a3,0x10
    2590:	04080813          	addi	a6,a6,64 # 4000040 <_stack_end+0x3efabc0>
    2594:	00072783          	lw	a5,0(a4)
    2598:	fed7eee3          	bltu	a5,a3,2594 <handle_exception+0x178>
    259c:	00b82023          	sw	a1,0(a6)
    25a0:	00164583          	lbu	a1,1(a2)
    25a4:	00160613          	addi	a2,a2,1
    25a8:	fe0596e3          	bnez	a1,2594 <handle_exception+0x178>
    25ac:	ebdff06f          	j	2468 <handle_exception+0x4c>
    25b0:	04000737          	lui	a4,0x4000
    25b4:	04000837          	lui	a6,0x4000
    25b8:	00005637          	lui	a2,0x5
    25bc:	42860613          	addi	a2,a2,1064 # 5428 <WSoldier+0x474>
    25c0:	00a00593          	li	a1,10
    25c4:	04470713          	addi	a4,a4,68 # 4000044 <_stack_end+0x3efabc4>
    25c8:	000106b7          	lui	a3,0x10
    25cc:	04080813          	addi	a6,a6,64 # 4000040 <_stack_end+0x3efabc0>
    25d0:	00072783          	lw	a5,0(a4)
    25d4:	fed7eee3          	bltu	a5,a3,25d0 <handle_exception+0x1b4>
    25d8:	00b82023          	sw	a1,0(a6)
    25dc:	00164583          	lbu	a1,1(a2)
    25e0:	00160613          	addi	a2,a2,1
    25e4:	fe0596e3          	bnez	a1,25d0 <handle_exception+0x1b4>
    25e8:	e81ff06f          	j	2468 <handle_exception+0x4c>
    25ec:	00054603          	lbu	a2,0(a0)
    25f0:	02060a63          	beqz	a2,2624 <handle_exception+0x208>
    25f4:	04000737          	lui	a4,0x4000
    25f8:	040005b7          	lui	a1,0x4000
    25fc:	04470713          	addi	a4,a4,68 # 4000044 <_stack_end+0x3efabc4>
    2600:	000106b7          	lui	a3,0x10
    2604:	04058593          	addi	a1,a1,64 # 4000040 <_stack_end+0x3efabc0>
    2608:	00072783          	lw	a5,0(a4)
    260c:	fed7eee3          	bltu	a5,a3,2608 <handle_exception+0x1ec>
    2610:	00c5a023          	sw	a2,0(a1)
    2614:	00154603          	lbu	a2,1(a0)
    2618:	00150513          	addi	a0,a0,1
    261c:	fe0616e3          	bnez	a2,2608 <handle_exception+0x1ec>
    2620:	00008067          	ret
    2624:	00008067          	ret

00002628 <nextprime>:
    2628:	00200713          	li	a4,2
    262c:	00050793          	mv	a5,a0
    2630:	02a74063          	blt	a4,a0,2650 <nextprime+0x28>
    2634:	00100513          	li	a0,1
    2638:	00f05a63          	blez	a5,264c <nextprime+0x24>
    263c:	fff78793          	addi	a5,a5,-1
    2640:	00f037b3          	snez	a5,a5
    2644:	00278513          	addi	a0,a5,2
    2648:	00008067          	ret
    264c:	00008067          	ret
    2650:	00150793          	addi	a5,a0,1
    2654:	0017e513          	ori	a0,a5,1
    2658:	00300613          	li	a2,3
    265c:	02c567b3          	rem	a5,a0,a2
    2660:	40155693          	srai	a3,a0,0x1
    2664:	02078263          	beqz	a5,2688 <nextprime+0x60>
    2668:	00268693          	addi	a3,a3,2 # 10002 <WSoldier+0xb04e>
    266c:	00300793          	li	a5,3
    2670:	00c0006f          	j	267c <nextprime+0x54>
    2674:	02f56733          	rem	a4,a0,a5
    2678:	00070863          	beqz	a4,2688 <nextprime+0x60>
    267c:	00178793          	addi	a5,a5,1
    2680:	fef69ae3          	bne	a3,a5,2674 <nextprime+0x4c>
    2684:	00008067          	ret
    2688:	00250513          	addi	a0,a0,2
    268c:	fd1ff06f          	j	265c <nextprime+0x34>

00002690 <get_piece_sprite>:
    2690:	fff50513          	addi	a0,a0,-1
    2694:	0ff57513          	zext.b	a0,a0
    2698:	00b00793          	li	a5,11
    269c:	00a7ee63          	bltu	a5,a0,26b8 <get_piece_sprite+0x28>
    26a0:	000037b7          	lui	a5,0x3
    26a4:	00251513          	slli	a0,a0,0x2
    26a8:	8d878793          	addi	a5,a5,-1832 # 28d8 <CSWTCH.1>
    26ac:	00a787b3          	add	a5,a5,a0
    26b0:	0007a503          	lw	a0,0(a5)
    26b4:	00008067          	ret
    26b8:	00000513          	li	a0,0
    26bc:	00008067          	ret

Disassembly of section .data:

000026c0 <welcome_msg>:
    26c0:	3d3d                	.insn	2, 0x3d3d
    26c2:	3d3d                	.insn	2, 0x3d3d
    26c4:	3d3d                	.insn	2, 0x3d3d
    26c6:	3d3d                	.insn	2, 0x3d3d
    26c8:	3d3d                	.insn	2, 0x3d3d
    26ca:	3d3d                	.insn	2, 0x3d3d
    26cc:	3d3d                	.insn	2, 0x3d3d
    26ce:	3d3d                	.insn	2, 0x3d3d
    26d0:	3d3d                	.insn	2, 0x3d3d
    26d2:	3d3d                	.insn	2, 0x3d3d
    26d4:	3d3d                	.insn	2, 0x3d3d
    26d6:	3d3d                	.insn	2, 0x3d3d
    26d8:	3d3d                	.insn	2, 0x3d3d
    26da:	3d3d                	.insn	2, 0x3d3d
    26dc:	3d3d                	.insn	2, 0x3d3d
    26de:	3d3d                	.insn	2, 0x3d3d
    26e0:	3d3d                	.insn	2, 0x3d3d
    26e2:	3d3d                	.insn	2, 0x3d3d
    26e4:	3d3d                	.insn	2, 0x3d3d
    26e6:	3d3d                	.insn	2, 0x3d3d
    26e8:	3d3d                	.insn	2, 0x3d3d
    26ea:	3d3d                	.insn	2, 0x3d3d
    26ec:	3d3d                	.insn	2, 0x3d3d
    26ee:	3d3d                	.insn	2, 0x3d3d
    26f0:	3d0a                	.insn	2, 0x3d0a
    26f2:	3d3d                	.insn	2, 0x3d3d
    26f4:	3d3d                	.insn	2, 0x3d3d
    26f6:	5220                	.insn	2, 0x5220
    26f8:	5349                	.insn	2, 0x5349
    26fa:	20562d43          	.insn	4, 0x20562d43
    26fe:	6f42                	.insn	2, 0x6f42
    2700:	552d746f          	jal	s0,d9c52 <WSoldier+0xd4c9e>
    2704:	2070                	.insn	2, 0x2070
    2706:	7250                	.insn	2, 0x7250
    2708:	7365636f          	jal	t1,58e3e <WSoldier+0x53e8a>
    270c:	6f4e2073          	csrs	0x6f4,t3
    2710:	6f432077          	.insn	4, 0x6f432077
    2714:	706d                	.insn	2, 0x706d
    2716:	656c                	.insn	2, 0x656c
    2718:	6574                	.insn	2, 0x6574
    271a:	3d20                	.insn	2, 0x3d20
    271c:	3d3d                	.insn	2, 0x3d3d
    271e:	3d3d                	.insn	2, 0x3d3d
    2720:	0a3d                	.insn	2, 0x0a3d
    2722:	3d3d                	.insn	2, 0x3d3d
    2724:	3d3d                	.insn	2, 0x3d3d
    2726:	3d3d                	.insn	2, 0x3d3d
    2728:	3d3d                	.insn	2, 0x3d3d
    272a:	3d3d                	.insn	2, 0x3d3d
    272c:	3d3d                	.insn	2, 0x3d3d
    272e:	3d3d                	.insn	2, 0x3d3d
    2730:	3d3d                	.insn	2, 0x3d3d
    2732:	3d3d                	.insn	2, 0x3d3d
    2734:	3d3d                	.insn	2, 0x3d3d
    2736:	3d3d                	.insn	2, 0x3d3d
    2738:	3d3d                	.insn	2, 0x3d3d
    273a:	3d3d                	.insn	2, 0x3d3d
    273c:	3d3d                	.insn	2, 0x3d3d
    273e:	3d3d                	.insn	2, 0x3d3d
    2740:	3d3d                	.insn	2, 0x3d3d
    2742:	3d3d                	.insn	2, 0x3d3d
    2744:	3d3d                	.insn	2, 0x3d3d
    2746:	3d3d                	.insn	2, 0x3d3d
    2748:	3d3d                	.insn	2, 0x3d3d
    274a:	3d3d                	.insn	2, 0x3d3d
    274c:	3d3d                	.insn	2, 0x3d3d
    274e:	3d3d                	.insn	2, 0x3d3d
    2750:	3d3d                	.insn	2, 0x3d3d
    2752:	000a                	.insn	2, 0x000a

00002754 <LED>:
    2754:	0000                	.insn	2, 0x
    2756:	0400                	.insn	2, 0x0400

00002758 <TMR_PERIODH>:
    2758:	002c                	.insn	2, 0x002c
    275a:	0400                	.insn	2, 0x0400

0000275c <TMR_PERIODL>:
    275c:	0028                	.insn	2, 0x0028
    275e:	0400                	.insn	2, 0x0400

00002760 <TMR_CONTROL>:
    2760:	0024                	.insn	2, 0x0024
    2762:	0400                	.insn	2, 0x0400

00002764 <TMR_STATUS>:
    2764:	0020                	.insn	2, 0x0020
    2766:	0400                	.insn	2, 0x0400

00002768 <BTN_EDGECAP>:
    2768:	00dc                	.insn	2, 0x00dc
    276a:	0400                	.insn	2, 0x0400

0000276c <BTN_MASK>:
    276c:	00d8                	.insn	2, 0x00d8
    276e:	0400                	.insn	2, 0x0400

00002770 <BTN_DATA>:
    2770:	00d0                	.insn	2, 0x00d0
    2772:	0400                	.insn	2, 0x0400

00002774 <SW_EDGECAP>:
    2774:	001c                	.insn	2, 0x001c
    2776:	0400                	.insn	2, 0x0400

00002778 <SW_MASK>:
    2778:	0018                	.insn	2, 0x0018
    277a:	0400                	.insn	2, 0x0400

0000277c <SW_DATA>:
    277c:	0010                	.insn	2, 0x0010
    277e:	0400                	.insn	2, 0x0400

00002780 <src_rank>:
    2780:	ffff                	.insn	2, 0xffff
    2782:	ffff                	.insn	2, 0xffff

00002784 <src_file>:
    2784:	ffff                	.insn	2, 0xffff
    2786:	ffff                	.insn	2, 0xffff

00002788 <white_to_move>:
    2788:	0001                	.insn	2, 0x0001
	...

0000278c <sel_rank>:
    278c:	ffff                	.insn	2, 0xffff
    278e:	ffff                	.insn	2, 0xffff

00002790 <sel_file>:
    2790:	ffff                	.insn	2, 0xffff
    2792:	ffff                	.insn	2, 0xffff

00002794 <seconds_left>:
    2794:	003c                	.insn	2, 0x003c
	...

Disassembly of section .rodata:

000027e8 <CSWTCH.1-0xf0>:
    27e8:	19c8                	.insn	2, 0x19c8
    27ea:	0000                	.insn	2, 0x
    27ec:	1604                	.insn	2, 0x1604
    27ee:	0000                	.insn	2, 0x
    27f0:	1614                	.insn	2, 0x1614
    27f2:	0000                	.insn	2, 0x
    27f4:	1624                	.insn	2, 0x1624
    27f6:	0000                	.insn	2, 0x
    27f8:	1634                	.insn	2, 0x1634
    27fa:	0000                	.insn	2, 0x
    27fc:	1644                	.insn	2, 0x1644
    27fe:	0000                	.insn	2, 0x
    2800:	1654                	.insn	2, 0x1654
    2802:	0000                	.insn	2, 0x
    2804:	1664                	.insn	2, 0x1664
    2806:	0000                	.insn	2, 0x
    2808:	1674                	.insn	2, 0x1674
    280a:	0000                	.insn	2, 0x
    280c:	1524                	.insn	2, 0x1524
    280e:	0000                	.insn	2, 0x
    2810:	19b8                	.insn	2, 0x19b8
    2812:	0000                	.insn	2, 0x
    2814:	15f4                	.insn	2, 0x15f4
    2816:	0000                	.insn	2, 0x
    2818:	15e4                	.insn	2, 0x15e4
    281a:	0000                	.insn	2, 0x
    281c:	15d4                	.insn	2, 0x15d4
    281e:	0000                	.insn	2, 0x
    2820:	15c4                	.insn	2, 0x15c4
    2822:	0000                	.insn	2, 0x
    2824:	15b4                	.insn	2, 0x15b4
    2826:	0000                	.insn	2, 0x
    2828:	15a4                	.insn	2, 0x15a4
    282a:	0000                	.insn	2, 0x
    282c:	1594                	.insn	2, 0x1594
    282e:	0000                	.insn	2, 0x
    2830:	1584                	.insn	2, 0x1584
    2832:	0000                	.insn	2, 0x
    2834:	1550                	.insn	2, 0x1550
    2836:	0000                	.insn	2, 0x
    2838:	195c                	.insn	2, 0x195c
    283a:	0000                	.insn	2, 0x
    283c:	194c                	.insn	2, 0x194c
    283e:	0000                	.insn	2, 0x
    2840:	193c                	.insn	2, 0x193c
    2842:	0000                	.insn	2, 0x
    2844:	192c                	.insn	2, 0x192c
    2846:	0000                	.insn	2, 0x
    2848:	191c                	.insn	2, 0x191c
    284a:	0000                	.insn	2, 0x
    284c:	190c                	.insn	2, 0x190c
    284e:	0000                	.insn	2, 0x
    2850:	18fc                	.insn	2, 0x18fc
    2852:	0000                	.insn	2, 0x
    2854:	18ec                	.insn	2, 0x18ec
    2856:	0000                	.insn	2, 0x
    2858:	1684                	.insn	2, 0x1684
    285a:	0000                	.insn	2, 0x
    285c:	196c                	.insn	2, 0x196c
    285e:	0000                	.insn	2, 0x
    2860:	18cc                	.insn	2, 0x18cc
    2862:	0000                	.insn	2, 0x
    2864:	18bc                	.insn	2, 0x18bc
    2866:	0000                	.insn	2, 0x
    2868:	18ac                	.insn	2, 0x18ac
    286a:	0000                	.insn	2, 0x
    286c:	189c                	.insn	2, 0x189c
    286e:	0000                	.insn	2, 0x
    2870:	188c                	.insn	2, 0x188c
    2872:	0000                	.insn	2, 0x
    2874:	187c                	.insn	2, 0x187c
    2876:	0000                	.insn	2, 0x
    2878:	186c                	.insn	2, 0x186c
    287a:	0000                	.insn	2, 0x
    287c:	185c                	.insn	2, 0x185c
    287e:	0000                	.insn	2, 0x
    2880:	16b4                	.insn	2, 0x16b4
    2882:	0000                	.insn	2, 0x
    2884:	18dc                	.insn	2, 0x18dc
    2886:	0000                	.insn	2, 0x
    2888:	183c                	.insn	2, 0x183c
    288a:	0000                	.insn	2, 0x
    288c:	182c                	.insn	2, 0x182c
    288e:	0000                	.insn	2, 0x
    2890:	181c                	.insn	2, 0x181c
    2892:	0000                	.insn	2, 0x
    2894:	180c                	.insn	2, 0x180c
    2896:	0000                	.insn	2, 0x
    2898:	17fc                	.insn	2, 0x17fc
    289a:	0000                	.insn	2, 0x
    289c:	17ec                	.insn	2, 0x17ec
    289e:	0000                	.insn	2, 0x
    28a0:	17dc                	.insn	2, 0x17dc
    28a2:	0000                	.insn	2, 0x
    28a4:	17cc                	.insn	2, 0x17cc
    28a6:	0000                	.insn	2, 0x
    28a8:	16e4                	.insn	2, 0x16e4
    28aa:	0000                	.insn	2, 0x
    28ac:	184c                	.insn	2, 0x184c
    28ae:	0000                	.insn	2, 0x
    28b0:	17ac                	.insn	2, 0x17ac
    28b2:	0000                	.insn	2, 0x
    28b4:	179c                	.insn	2, 0x179c
    28b6:	0000                	.insn	2, 0x
    28b8:	178c                	.insn	2, 0x178c
    28ba:	0000                	.insn	2, 0x
    28bc:	177c                	.insn	2, 0x177c
    28be:	0000                	.insn	2, 0x
    28c0:	176c                	.insn	2, 0x176c
    28c2:	0000                	.insn	2, 0x
    28c4:	175c                	.insn	2, 0x175c
    28c6:	0000                	.insn	2, 0x
    28c8:	174c                	.insn	2, 0x174c
    28ca:	0000                	.insn	2, 0x
    28cc:	173c                	.insn	2, 0x173c
    28ce:	0000                	.insn	2, 0x
    28d0:	1714                	.insn	2, 0x1714
    28d2:	0000                	.insn	2, 0x
    28d4:	17bc                	.insn	2, 0x17bc
	...

000028d8 <CSWTCH.1>:
    28d8:	4fb4                	.insn	2, 0x4fb4
    28da:	0000                	.insn	2, 0x
    28dc:	4c30                	.insn	2, 0x4c30
    28de:	0000                	.insn	2, 0x
    28e0:	48ac                	.insn	2, 0x48ac
    28e2:	0000                	.insn	2, 0x
    28e4:	4528                	.insn	2, 0x4528
    28e6:	0000                	.insn	2, 0x
    28e8:	41a4                	.insn	2, 0x41a4
    28ea:	0000                	.insn	2, 0x
    28ec:	3e20                	.insn	2, 0x3e20
    28ee:	0000                	.insn	2, 0x
    28f0:	3a9c                	.insn	2, 0x3a9c
    28f2:	0000                	.insn	2, 0x
    28f4:	3718                	.insn	2, 0x3718
    28f6:	0000                	.insn	2, 0x
    28f8:	3394                	.insn	2, 0x3394
    28fa:	0000                	.insn	2, 0x
    28fc:	3010                	.insn	2, 0x3010
    28fe:	0000                	.insn	2, 0x
    2900:	2c8c                	.insn	2, 0x2c8c
    2902:	0000                	.insn	2, 0x
    2904:	2908                	.insn	2, 0x2908
	...

00002908 <BKing>:
    2908:	e3e3e3e3          	bltu	t2,t5,272e <welcome_msg+0x6e>
    290c:	e3e3e3e3          	bltu	t2,t5,2732 <welcome_msg+0x72>
    2910:	e3e3e3e3          	bltu	t2,t5,2736 <welcome_msg+0x76>
    2914:	e3e3e3e3          	bltu	t2,t5,273a <welcome_msg+0x7a>
    2918:	e3e3e3e3          	bltu	t2,t5,273e <welcome_msg+0x7e>
    291c:	e3e3e3e3          	bltu	t2,t5,2742 <welcome_msg+0x82>
    2920:	e3e3e3e3          	bltu	t2,t5,2746 <welcome_msg+0x86>
    2924:	e3e3e3e3          	bltu	t2,t5,274a <welcome_msg+0x8a>
    2928:	e3e3e3e3          	bltu	t2,t5,274e <welcome_msg+0x8e>
    292c:	e3e3e3e3          	bltu	t2,t5,2752 <welcome_msg+0x92>
    2930:	e3e3e3e3          	bltu	t2,t5,2756 <LED+0x2>
    2934:	e3e3e3e3          	bltu	t2,t5,275a <TMR_PERIODH+0x2>
    2938:	e3e3e3e3          	bltu	t2,t5,275e <TMR_PERIODL+0x2>
    293c:	e3e3e3e3          	bltu	t2,t5,2762 <TMR_CONTROL+0x2>
    2940:	e3e3e3e3          	bltu	t2,t5,2766 <TMR_STATUS+0x2>
    2944:	e3e3e3e3          	bltu	t2,t5,276a <BTN_EDGECAP+0x2>
    2948:	e3e3e3e3          	bltu	t2,t5,276e <BTN_MASK+0x2>
    294c:	e3e3e3e3          	bltu	t2,t5,2772 <BTN_DATA+0x2>
    2950:	e3e3e3e3          	bltu	t2,t5,2776 <SW_EDGECAP+0x2>
    2954:	e3e3e3e3          	bltu	t2,t5,277a <SW_MASK+0x2>
    2958:	e3e3e3e3          	bltu	t2,t5,277e <SW_DATA+0x2>
    295c:	e3e3e3e3          	bltu	t2,t5,2782 <src_rank+0x2>
    2960:	e3e3e3e3          	bltu	t2,t5,2786 <src_file+0x2>
    2964:	e3e3e3e3          	bltu	t2,t5,278a <white_to_move+0x2>
    2968:	e3e3e3e3          	bltu	t2,t5,278e <sel_rank+0x2>
    296c:	e3e3e3e3          	bltu	t2,t5,2792 <sel_file+0x2>
    2970:	0000                	.insn	2, 0x
    2972:	e3e3e3e3          	bltu	t2,t5,2798 <board>
    2976:	e3e3e3e3          	bltu	t2,t5,279c <board+0x4>
    297a:	e3e3e3e3          	bltu	t2,t5,27a0 <board+0x8>
    297e:	e3e3e3e3          	bltu	t2,t5,27a4 <board+0xc>
    2982:	e3e3e3e3          	bltu	t2,t5,27a8 <board+0x10>
    2986:	e3e3e3e3          	bltu	t2,t5,27ac <board+0x14>
    298a:	00e3e3e3          	bltu	t2,a4,3190 <BCastle+0x180>
    298e:	0000                	.insn	2, 0x
    2990:	e300                	.insn	2, 0xe300
    2992:	e3e3e3e3          	bltu	t2,t5,27b8 <board+0x20>
    2996:	e3e3e3e3          	bltu	t2,t5,27bc <board+0x24>
    299a:	e3e3e3e3          	bltu	t2,t5,27c0 <board+0x28>
    299e:	e3e3e3e3          	bltu	t2,t5,27c4 <board+0x2c>
    29a2:	e3e3e3e3          	bltu	t2,t5,27c8 <board+0x30>
    29a6:	e3e3e3e3          	bltu	t2,t5,27cc <board+0x34>
    29aa:	000000e3          	beqz	zero,31aa <BCastle+0x19a>
    29ae:	e300                	.insn	2, 0xe300
    29b0:	e3e3e3e3          	bltu	t2,t5,27d6 <board+0x3e>
    29b4:	e3e3e3e3          	bltu	t2,t5,27da <zeros.0+0x2>
    29b8:	e3e3e3e3          	bltu	t2,t5,27de <piece_selected+0x2>
    29bc:	e3e3e3e3          	bltu	t2,t5,27e2 <btn_down+0x2>
    29c0:	e3e3e3e3          	bltu	t2,t5,27e6 <timeoutcount+0x2>
    29c4:	e3e3e3e3          	bltu	t2,t5,27ea <timeoutcount+0x6>
    29c8:	0000e3e3          	bltu	ra,zero,31ce <BCastle+0x1be>
    29cc:	e3e3e3e3          	bltu	t2,t5,27f2 <timeoutcount+0xe>
    29d0:	e3e3e3e3          	bltu	t2,t5,27f6 <timeoutcount+0x12>
    29d4:	e3e3e3e3          	bltu	t2,t5,27fa <timeoutcount+0x16>
    29d8:	e3e3e3e3          	bltu	t2,t5,27fe <timeoutcount+0x1a>
    29dc:	e3e3e3e3          	bltu	t2,t5,2802 <timeoutcount+0x1e>
    29e0:	e3e3e3e3          	bltu	t2,t5,2806 <timeoutcount+0x22>
    29e4:	e3e3e3e3          	bltu	t2,t5,280a <timeoutcount+0x26>
    29e8:	0000                	.insn	2, 0x
    29ea:	e3e3e3e3          	bltu	t2,t5,2810 <timeoutcount+0x2c>
    29ee:	e3e3e3e3          	bltu	t2,t5,2814 <timeoutcount+0x30>
    29f2:	e3e3e3e3          	bltu	t2,t5,2818 <timeoutcount+0x34>
    29f6:	e3e3e3e3          	bltu	t2,t5,281c <timeoutcount+0x38>
    29fa:	e3e3e3e3          	bltu	t2,t5,2820 <timeoutcount+0x3c>
    29fe:	e3e3e3e3          	bltu	t2,t5,2824 <timeoutcount+0x40>
    2a02:	00e3e3e3          	bltu	t2,a4,3208 <BCastle+0x1f8>
    2a06:	0000                	.insn	2, 0x
    2a08:	e300                	.insn	2, 0xe300
    2a0a:	e3e3e3e3          	bltu	t2,t5,2830 <timeoutcount+0x4c>
    2a0e:	e3e3e3e3          	bltu	t2,t5,2834 <timeoutcount+0x50>
    2a12:	e3e3e3e3          	bltu	t2,t5,2838 <timeoutcount+0x54>
    2a16:	e3e3e3e3          	bltu	t2,t5,283c <timeoutcount+0x58>
    2a1a:	e3e3e3e3          	bltu	t2,t5,2840 <timeoutcount+0x5c>
    2a1e:	e3e3e3e3          	bltu	t2,t5,2844 <timeoutcount+0x60>
    2a22:	0000                	.insn	2, 0x
    2a24:	0000                	.insn	2, 0x
    2a26:	0000                	.insn	2, 0x
    2a28:	e3e3e3e3          	bltu	t2,t5,284e <timeoutcount+0x6a>
    2a2c:	e3e3e3e3          	bltu	t2,t5,2852 <timeoutcount+0x6e>
    2a30:	e3e3e3e3          	bltu	t2,t5,2856 <timeoutcount+0x72>
    2a34:	e3e3e3e3          	bltu	t2,t5,285a <timeoutcount+0x76>
    2a38:	0000e3e3          	bltu	ra,zero,323e <BCastle+0x22e>
    2a3c:	0000                	.insn	2, 0x
    2a3e:	e300                	.insn	2, 0xe300
    2a40:	0000                	.insn	2, 0x
    2a42:	0000                	.insn	2, 0x
    2a44:	0000                	.insn	2, 0x
    2a46:	000000e3          	beqz	zero,3246 <BCastle+0x236>
    2a4a:	0000                	.insn	2, 0x
    2a4c:	e3e3e3e3          	bltu	t2,t5,2872 <timeoutcount+0x8e>
    2a50:	e3e3e3e3          	bltu	t2,t5,2876 <timeoutcount+0x92>
    2a54:	00e3e3e3          	bltu	t2,a4,325a <BCastle+0x24a>
    2a58:	ffff                	.insn	2, 0xffff
    2a5a:	ffff                	.insn	2, 0xffff
    2a5c:	00ff 0000 0000 0000 	.insn	10, 0xff0000000000000000ff
    2a64:	ff00 
    2a66:	ffff                	.insn	2, 0xffff
    2a68:	ffff                	.insn	2, 0xffff
    2a6a:	e300                	.insn	2, 0xe300
    2a6c:	e3e3e3e3          	bltu	t2,t5,2892 <timeoutcount+0xae>
    2a70:	e3e3e3e3          	bltu	t2,t5,2896 <timeoutcount+0xb2>
    2a74:	ff00                	.insn	2, 0xff00
    2a76:	0000                	.insn	2, 0x
    2a78:	0000                	.insn	2, 0x
    2a7a:	ff00                	.insn	2, 0xff00
    2a7c:	0000                	.insn	2, 0x
    2a7e:	0000                	.insn	2, 0x
    2a80:	0000                	.insn	2, 0x
    2a82:	00ff 0000 0000 00ff 	.insn	10, 0xe3e300ff0000000000ff
    2a8a:	e3e3 
    2a8c:	e3e3e3e3          	bltu	t2,t5,28b2 <timeoutcount+0xce>
    2a90:	00ff00e3          	beq	t5,a5,3290 <BCastle+0x280>
    2a94:	0000                	.insn	2, 0x
    2a96:	0000                	.insn	2, 0x
    2a98:	0000                	.insn	2, 0x
    2a9a:	00ff 0000 ff00 0000 	.insn	10, 0xff00000000ff
    2aa2:	0000 
    2aa4:	0000                	.insn	2, 0x
    2aa6:	ff00                	.insn	2, 0xff00
    2aa8:	e300                	.insn	2, 0xe300
    2aaa:	e3e3e3e3          	bltu	t2,t5,28d0 <timeoutcount+0xec>
    2aae:	00ff00e3          	beq	t5,a5,32ae <BCastle+0x29e>
    2ab2:	0000                	.insn	2, 0x
    2ab4:	0000                	.insn	2, 0x
    2ab6:	0000                	.insn	2, 0x
    2ab8:	ff00                	.insn	2, 0xff00
    2aba:	ffff                	.insn	2, 0xffff
    2abc:	00ff 0000 0000 0000 	.insn	10, 0xff0000000000000000ff
    2ac4:	ff00 
    2ac6:	e300                	.insn	2, 0xe300
    2ac8:	e3e3e3e3          	bltu	t2,t5,28ee <CSWTCH.1+0x16>
    2acc:	00ff00e3          	beq	t5,a5,32cc <BCastle+0x2bc>
	...
    2ad8:	ffff                	.insn	2, 0xffff
	...
    2ae2:	ff00                	.insn	2, 0xff00
    2ae4:	e300                	.insn	2, 0xe300
    2ae6:	e3e3e3e3          	bltu	t2,t5,290c <BKing+0x4>
    2aea:	00ff00e3          	beq	t5,a5,32ea <BCastle+0x2da>
	...
    2af6:	ffff                	.insn	2, 0xffff
	...
    2b00:	ff00                	.insn	2, 0xff00
    2b02:	e300                	.insn	2, 0xe300
    2b04:	e3e3e3e3          	bltu	t2,t5,292a <BKing+0x22>
    2b08:	ff00e3e3          	bltu	ra,a6,2aee <BKing+0x1e6>
	...
    2b14:	ffff                	.insn	2, 0xffff
	...
    2b1e:	00ff e3e3 e3e3 e3e3 	.insn	10, 0xe3e3e3e3e3e3e3e300ff
    2b26:	e3e3 
    2b28:	00ff00e3          	beq	t5,a5,3328 <BCastle+0x318>
    2b2c:	0000                	.insn	2, 0x
    2b2e:	0000                	.insn	2, 0x
    2b30:	ffff                	.insn	2, 0xffff
    2b32:	ffff                	.insn	2, 0xffff
    2b34:	ffff                	.insn	2, 0xffff
    2b36:	0000                	.insn	2, 0x
    2b38:	0000                	.insn	2, 0x
    2b3a:	ff00                	.insn	2, 0xff00
    2b3c:	e300                	.insn	2, 0xe300
    2b3e:	e3e3e3e3          	bltu	t2,t5,2964 <BKing+0x5c>
    2b42:	e3e3e3e3          	bltu	t2,t5,2968 <BKing+0x60>
    2b46:	ff00e3e3          	bltu	ra,a6,2b2c <BKing+0x224>
    2b4a:	ff00                	.insn	2, 0xff00
    2b4c:	ffff                	.insn	2, 0xffff
    2b4e:	0000                	.insn	2, 0x
    2b50:	0000                	.insn	2, 0x
    2b52:	0000                	.insn	2, 0x
    2b54:	ffff                	.insn	2, 0xffff
    2b56:	00ff 00ff e3e3 e3e3 	.insn	10, 0xe3e3e3e3e3e300ff00ff
    2b5e:	e3e3 
    2b60:	e3e3e3e3          	bltu	t2,t5,2986 <BKing+0x7e>
    2b64:	00e3e3e3          	bltu	t2,a4,336a <BCastle+0x35a>
    2b68:	00ff 0000 ff00 ffff 	.insn	10, 0x00ffffffff00000000ff
    2b70:	00ff 
    2b72:	0000                	.insn	2, 0x
    2b74:	ff00                	.insn	2, 0xff00
    2b76:	e300                	.insn	2, 0xe300
    2b78:	e3e3e3e3          	bltu	t2,t5,299e <BKing+0x96>
    2b7c:	e3e3e3e3          	bltu	t2,t5,29a2 <BKing+0x9a>
    2b80:	e3e3e3e3          	bltu	t2,t5,29a6 <BKing+0x9e>
    2b84:	000000e3          	beqz	zero,3384 <BCastle+0x374>
    2b88:	ffff                	.insn	2, 0xffff
    2b8a:	00ff 0000 ff00 ffff 	.insn	10, 0xffffff00000000ff
    2b92:	0000 
    2b94:	e300                	.insn	2, 0xe300
    2b96:	e3e3e3e3          	bltu	t2,t5,29bc <BKing+0xb4>
    2b9a:	e3e3e3e3          	bltu	t2,t5,29c0 <BKing+0xb8>
    2b9e:	e3e3e3e3          	bltu	t2,t5,29c4 <BKing+0xbc>
    2ba2:	ffff00e3          	beq	t5,t6,2b82 <BKing+0x27a>
    2ba6:	0000                	.insn	2, 0x
    2ba8:	0000                	.insn	2, 0x
    2baa:	ffff                	.insn	2, 0xffff
    2bac:	0000                	.insn	2, 0x
    2bae:	0000                	.insn	2, 0x
    2bb0:	ffff                	.insn	2, 0xffff
    2bb2:	e300                	.insn	2, 0xe300
    2bb4:	e3e3e3e3          	bltu	t2,t5,29da <BKing+0xd2>
    2bb8:	e3e3e3e3          	bltu	t2,t5,29de <BKing+0xd6>
    2bbc:	e3e3e3e3          	bltu	t2,t5,29e2 <BKing+0xda>
    2bc0:	000000e3          	beqz	zero,33c0 <BBishop+0x2c>
    2bc4:	ff00                	.insn	2, 0xff00
    2bc6:	ffff                	.insn	2, 0xffff
    2bc8:	0000                	.insn	2, 0x
    2bca:	ffff                	.insn	2, 0xffff
    2bcc:	00ff 0000 e300 e3e3 	.insn	10, 0xe3e3e3e3e300000000ff
    2bd4:	e3e3 
    2bd6:	e3e3e3e3          	bltu	t2,t5,29fc <BKing+0xf4>
    2bda:	e3e3e3e3          	bltu	t2,t5,2a00 <BKing+0xf8>
    2bde:	ffff00e3          	beq	t5,t6,2bbe <BKing+0x2b6>
    2be2:	00ff 0000 0000 0000 	.insn	10, 0xff0000000000000000ff
    2bea:	ff00 
    2bec:	ffff                	.insn	2, 0xffff
    2bee:	e300                	.insn	2, 0xe300
    2bf0:	e3e3e3e3          	bltu	t2,t5,2a16 <BKing+0x10e>
    2bf4:	e3e3e3e3          	bltu	t2,t5,2a1a <BKing+0x112>
    2bf8:	e3e3e3e3          	bltu	t2,t5,2a1e <BKing+0x116>
    2bfc:	0000e3e3          	bltu	ra,zero,3402 <BBishop+0x6e>
	...
    2c0c:	e3e3e3e3          	bltu	t2,t5,2a32 <BKing+0x12a>
    2c10:	e3e3e3e3          	bltu	t2,t5,2a36 <BKing+0x12e>
    2c14:	e3e3e3e3          	bltu	t2,t5,2a3a <BKing+0x132>
    2c18:	e3e3e3e3          	bltu	t2,t5,2a3e <BKing+0x136>
    2c1c:	0000e3e3          	bltu	ra,zero,3422 <BBishop+0x8e>
	...
    2c28:	e3e3e3e3          	bltu	t2,t5,2a4e <BKing+0x146>
    2c2c:	e3e3e3e3          	bltu	t2,t5,2a52 <BKing+0x14a>
    2c30:	e3e3e3e3          	bltu	t2,t5,2a56 <BKing+0x14e>
    2c34:	e3e3e3e3          	bltu	t2,t5,2a5a <BKing+0x152>
    2c38:	e3e3e3e3          	bltu	t2,t5,2a5e <BKing+0x156>
    2c3c:	e3e3e3e3          	bltu	t2,t5,2a62 <BKing+0x15a>
    2c40:	e3e3e3e3          	bltu	t2,t5,2a66 <BKing+0x15e>
    2c44:	e3e3e3e3          	bltu	t2,t5,2a6a <BKing+0x162>
    2c48:	e3e3e3e3          	bltu	t2,t5,2a6e <BKing+0x166>
    2c4c:	e3e3e3e3          	bltu	t2,t5,2a72 <BKing+0x16a>
    2c50:	e3e3e3e3          	bltu	t2,t5,2a76 <BKing+0x16e>
    2c54:	e3e3e3e3          	bltu	t2,t5,2a7a <BKing+0x172>
    2c58:	e3e3e3e3          	bltu	t2,t5,2a7e <BKing+0x176>
    2c5c:	e3e3e3e3          	bltu	t2,t5,2a82 <BKing+0x17a>
    2c60:	e3e3e3e3          	bltu	t2,t5,2a86 <BKing+0x17e>
    2c64:	e3e3e3e3          	bltu	t2,t5,2a8a <BKing+0x182>
    2c68:	e3e3e3e3          	bltu	t2,t5,2a8e <BKing+0x186>
    2c6c:	e3e3e3e3          	bltu	t2,t5,2a92 <BKing+0x18a>
    2c70:	e3e3e3e3          	bltu	t2,t5,2a96 <BKing+0x18e>
    2c74:	e3e3e3e3          	bltu	t2,t5,2a9a <BKing+0x192>
    2c78:	e3e3e3e3          	bltu	t2,t5,2a9e <BKing+0x196>
    2c7c:	e3e3e3e3          	bltu	t2,t5,2aa2 <BKing+0x19a>
    2c80:	e3e3e3e3          	bltu	t2,t5,2aa6 <BKing+0x19e>
    2c84:	e3e3e3e3          	bltu	t2,t5,2aaa <BKing+0x1a2>
    2c88:	e3e3e3e3          	bltu	t2,t5,2aae <BKing+0x1a6>

00002c8c <BQueen>:
    2c8c:	e3e3e3e3          	bltu	t2,t5,2ab2 <BKing+0x1aa>
    2c90:	e3e3e3e3          	bltu	t2,t5,2ab6 <BKing+0x1ae>
    2c94:	e3e3e3e3          	bltu	t2,t5,2aba <BKing+0x1b2>
    2c98:	e3e3e3e3          	bltu	t2,t5,2abe <BKing+0x1b6>
    2c9c:	e3e3e3e3          	bltu	t2,t5,2ac2 <BKing+0x1ba>
    2ca0:	e3e3e3e3          	bltu	t2,t5,2ac6 <BKing+0x1be>
    2ca4:	e3e3e3e3          	bltu	t2,t5,2aca <BKing+0x1c2>
    2ca8:	e3e3e3e3          	bltu	t2,t5,2ace <BKing+0x1c6>
    2cac:	e3e3e3e3          	bltu	t2,t5,2ad2 <BKing+0x1ca>
    2cb0:	e3e3e3e3          	bltu	t2,t5,2ad6 <BKing+0x1ce>
    2cb4:	e3e3e3e3          	bltu	t2,t5,2ada <BKing+0x1d2>
    2cb8:	e3e3e3e3          	bltu	t2,t5,2ade <BKing+0x1d6>
    2cbc:	e3e3e3e3          	bltu	t2,t5,2ae2 <BKing+0x1da>
    2cc0:	e3e3e3e3          	bltu	t2,t5,2ae6 <BKing+0x1de>
    2cc4:	e3e3e3e3          	bltu	t2,t5,2aea <BKing+0x1e2>
    2cc8:	e3e3e3e3          	bltu	t2,t5,2aee <BKing+0x1e6>
    2ccc:	e3e3e3e3          	bltu	t2,t5,2af2 <BKing+0x1ea>
    2cd0:	e3e3e3e3          	bltu	t2,t5,2af6 <BKing+0x1ee>
    2cd4:	e3e3e3e3          	bltu	t2,t5,2afa <BKing+0x1f2>
    2cd8:	e3e3e3e3          	bltu	t2,t5,2afe <BKing+0x1f6>
    2cdc:	e3e3e3e3          	bltu	t2,t5,2b02 <BKing+0x1fa>
    2ce0:	e3e3e3e3          	bltu	t2,t5,2b06 <BKing+0x1fe>
    2ce4:	e3e3e3e3          	bltu	t2,t5,2b0a <BKing+0x202>
    2ce8:	e3e3e3e3          	bltu	t2,t5,2b0e <BKing+0x206>
    2cec:	e3e3e3e3          	bltu	t2,t5,2b12 <BKing+0x20a>
    2cf0:	e3e3e3e3          	bltu	t2,t5,2b16 <BKing+0x20e>
    2cf4:	0000                	.insn	2, 0x
    2cf6:	e3e3e3e3          	bltu	t2,t5,2b1c <BKing+0x214>
    2cfa:	e3e3e3e3          	bltu	t2,t5,2b20 <BKing+0x218>
    2cfe:	e3e3e3e3          	bltu	t2,t5,2b24 <BKing+0x21c>
    2d02:	e3e3e3e3          	bltu	t2,t5,2b28 <BKing+0x220>
    2d06:	e3e3e3e3          	bltu	t2,t5,2b2c <BKing+0x224>
    2d0a:	0000e3e3          	bltu	ra,zero,3510 <BBishop+0x17c>
    2d0e:	00e3e3e3          	bltu	t2,a4,3514 <BBishop+0x180>
    2d12:	0000                	.insn	2, 0x
    2d14:	e300                	.insn	2, 0xe300
    2d16:	0000e3e3          	bltu	ra,zero,351c <BBishop+0x188>
    2d1a:	e3e3e3e3          	bltu	t2,t5,2b40 <BKing+0x238>
    2d1e:	e3e3e3e3          	bltu	t2,t5,2b44 <BKing+0x23c>
    2d22:	e3e3e3e3          	bltu	t2,t5,2b48 <BKing+0x240>
    2d26:	00e3e3e3          	bltu	t2,a4,352c <BBishop+0x198>
    2d2a:	0000                	.insn	2, 0x
    2d2c:	e300                	.insn	2, 0xe300
    2d2e:	000000e3          	beqz	zero,352e <BBishop+0x19a>
    2d32:	e300                	.insn	2, 0xe300
    2d34:	000000e3          	beqz	zero,3534 <BBishop+0x1a0>
    2d38:	e300                	.insn	2, 0xe300
    2d3a:	e3e3e3e3          	bltu	t2,t5,2b60 <BKing+0x258>
    2d3e:	e3e3e3e3          	bltu	t2,t5,2b64 <BKing+0x25c>
    2d42:	e30000e3          	beq	zero,a6,2b62 <BKing+0x25a>
    2d46:	000000e3          	beqz	zero,3546 <BBishop+0x1b2>
    2d4a:	e300                	.insn	2, 0xe300
    2d4c:	0000e3e3          	bltu	ra,zero,3552 <BBishop+0x1be>
    2d50:	00e3e3e3          	bltu	t2,a4,3556 <BBishop+0x1c2>
    2d54:	0000                	.insn	2, 0x
    2d56:	e300                	.insn	2, 0xe300
    2d58:	e30000e3          	beq	zero,a6,2b78 <BKing+0x270>
    2d5c:	e3e3e3e3          	bltu	t2,t5,2b82 <BKing+0x27a>
    2d60:	0000                	.insn	2, 0x
    2d62:	0000                	.insn	2, 0x
    2d64:	0000e3e3          	bltu	ra,zero,356a <BBishop+0x1d6>
    2d68:	e3e3e3e3          	bltu	t2,t5,2b8e <BKing+0x286>
    2d6c:	0000                	.insn	2, 0x
    2d6e:	e3e3e3e3          	bltu	t2,t5,2b94 <BKing+0x28c>
    2d72:	0000                	.insn	2, 0x
    2d74:	0000e3e3          	bltu	ra,zero,357a <BBishop+0x1e6>
    2d78:	0000                	.insn	2, 0x
    2d7a:	e3e3e3e3          	bltu	t2,t5,2ba0 <BKing+0x298>
    2d7e:	0000                	.insn	2, 0x
    2d80:	0000                	.insn	2, 0x
    2d82:	0000e3e3          	bltu	ra,zero,3588 <BBishop+0x1f4>
    2d86:	e300                	.insn	2, 0xe300
    2d88:	0000e3e3          	bltu	ra,zero,358e <BBishop+0x1fa>
    2d8c:	00e3e3e3          	bltu	t2,a4,3592 <BBishop+0x1fe>
    2d90:	0000                	.insn	2, 0x
    2d92:	0000e3e3          	bltu	ra,zero,3598 <BBishop+0x204>
    2d96:	0000                	.insn	2, 0x
    2d98:	e3e3e3e3          	bltu	t2,t5,2bbe <BKing+0x2b6>
    2d9c:	000000e3          	beqz	zero,359c <BBishop+0x208>
    2da0:	e300                	.insn	2, 0xe300
    2da2:	0000                	.insn	2, 0x
    2da4:	e300                	.insn	2, 0xe300
    2da6:	000000e3          	beqz	zero,35a6 <BBishop+0x212>
    2daa:	e300                	.insn	2, 0xe300
    2dac:	000000e3          	beqz	zero,35ac <BBishop+0x218>
    2db0:	000000e3          	beqz	zero,35b0 <BBishop+0x21c>
    2db4:	e300                	.insn	2, 0xe300
    2db6:	e3e3e3e3          	bltu	t2,t5,2bdc <BKing+0x2d4>
    2dba:	00e3e3e3          	bltu	t2,a4,35c0 <BBishop+0x22c>
    2dbe:	e300                	.insn	2, 0xe300
    2dc0:	0000                	.insn	2, 0x
    2dc2:	0000                	.insn	2, 0x
    2dc4:	000000e3          	beqz	zero,35c4 <BBishop+0x230>
    2dc8:	e300                	.insn	2, 0xe300
    2dca:	0000                	.insn	2, 0x
    2dcc:	0000                	.insn	2, 0x
    2dce:	e30000e3          	beq	zero,a6,2bee <BKing+0x2e6>
    2dd2:	e3e3e3e3          	bltu	t2,t5,2bf8 <BKing+0x2f0>
    2dd6:	e3e3e3e3          	bltu	t2,t5,2bfc <BKing+0x2f4>
    2dda:	000000e3          	beqz	zero,35da <BBishop+0x246>
	...
    2dee:	e300                	.insn	2, 0xe300
    2df0:	e3e3e3e3          	bltu	t2,t5,2c16 <BKing+0x30e>
    2df4:	e3e3e3e3          	bltu	t2,t5,2c1a <BKing+0x312>
    2df8:	000000e3          	beqz	zero,35f8 <BBishop+0x264>
	...
    2e0c:	e300                	.insn	2, 0xe300
    2e0e:	e3e3e3e3          	bltu	t2,t5,2c34 <BKing+0x32c>
    2e12:	e3e3e3e3          	bltu	t2,t5,2c38 <BKing+0x330>
    2e16:	000000e3          	beqz	zero,3616 <BBishop+0x282>
	...
    2e2a:	e300                	.insn	2, 0xe300
    2e2c:	e3e3e3e3          	bltu	t2,t5,2c52 <BKing+0x34a>
    2e30:	e3e3e3e3          	bltu	t2,t5,2c56 <BKing+0x34e>
    2e34:	000000e3          	beqz	zero,3634 <BBishop+0x2a0>
	...
    2e48:	e300                	.insn	2, 0xe300
    2e4a:	e3e3e3e3          	bltu	t2,t5,2c70 <BKing+0x368>
    2e4e:	e3e3e3e3          	bltu	t2,t5,2c74 <BKing+0x36c>
    2e52:	000000e3          	beqz	zero,3652 <BBishop+0x2be>
	...
    2e66:	e300                	.insn	2, 0xe300
    2e68:	e3e3e3e3          	bltu	t2,t5,2c8e <BQueen+0x2>
    2e6c:	e3e3e3e3          	bltu	t2,t5,2c92 <BQueen+0x6>
    2e70:	ffff00e3          	beq	t5,t6,2e50 <BQueen+0x1c4>
    2e74:	ffff                	.insn	2, 0xffff
    2e76:	ffff                	.insn	2, 0xffff
    2e78:	ffff                	.insn	2, 0xffff
    2e7a:	ffff                	.insn	2, 0xffff
    2e7c:	ffff                	.insn	2, 0xffff
    2e7e:	ffff                	.insn	2, 0xffff
    2e80:	ffff                	.insn	2, 0xffff
    2e82:	ffff                	.insn	2, 0xffff
    2e84:	e300                	.insn	2, 0xe300
    2e86:	e3e3e3e3          	bltu	t2,t5,2cac <BQueen+0x20>
    2e8a:	e3e3e3e3          	bltu	t2,t5,2cb0 <BQueen+0x24>
    2e8e:	0000e3e3          	bltu	ra,zero,3694 <BBishop+0x300>
	...
    2ea2:	e3e3e3e3          	bltu	t2,t5,2cc8 <BQueen+0x3c>
    2ea6:	e3e3e3e3          	bltu	t2,t5,2ccc <BQueen+0x40>
    2eaa:	e3e3e3e3          	bltu	t2,t5,2cd0 <BQueen+0x44>
    2eae:	ffff00e3          	beq	t5,t6,2e8e <BQueen+0x202>
    2eb2:	ffff                	.insn	2, 0xffff
    2eb4:	ffff                	.insn	2, 0xffff
    2eb6:	ffff                	.insn	2, 0xffff
    2eb8:	ffff                	.insn	2, 0xffff
    2eba:	ffff                	.insn	2, 0xffff
    2ebc:	ffff                	.insn	2, 0xffff
    2ebe:	e300                	.insn	2, 0xe300
    2ec0:	e3e3e3e3          	bltu	t2,t5,2ce6 <BQueen+0x5a>
    2ec4:	e3e3e3e3          	bltu	t2,t5,2cea <BQueen+0x5e>
    2ec8:	e3e3e3e3          	bltu	t2,t5,2cee <BQueen+0x62>
    2ecc:	0000e3e3          	bltu	ra,zero,36d2 <BBishop+0x33e>
	...
    2edc:	e3e3e3e3          	bltu	t2,t5,2d02 <BQueen+0x76>
    2ee0:	e3e3e3e3          	bltu	t2,t5,2d06 <BQueen+0x7a>
    2ee4:	e3e3e3e3          	bltu	t2,t5,2d0a <BQueen+0x7e>
    2ee8:	e3e3e3e3          	bltu	t2,t5,2d0e <BQueen+0x82>
	...
    2ef8:	0000                	.insn	2, 0x
    2efa:	e3e3e3e3          	bltu	t2,t5,2d20 <BQueen+0x94>
    2efe:	e3e3e3e3          	bltu	t2,t5,2d24 <BQueen+0x98>
    2f02:	e3e3e3e3          	bltu	t2,t5,2d28 <BQueen+0x9c>
    2f06:	e3e3e3e3          	bltu	t2,t5,2d2c <BQueen+0xa0>
	...
    2f16:	0000                	.insn	2, 0x
    2f18:	e3e3e3e3          	bltu	t2,t5,2d3e <BQueen+0xb2>
    2f1c:	e3e3e3e3          	bltu	t2,t5,2d42 <BQueen+0xb6>
    2f20:	e3e3e3e3          	bltu	t2,t5,2d46 <BQueen+0xba>
    2f24:	00e3e3e3          	bltu	t2,a4,372a <BHorse+0x12>
    2f28:	ffff                	.insn	2, 0xffff
    2f2a:	ffff                	.insn	2, 0xffff
    2f2c:	ffff                	.insn	2, 0xffff
    2f2e:	ffff                	.insn	2, 0xffff
    2f30:	ffff                	.insn	2, 0xffff
    2f32:	ffff                	.insn	2, 0xffff
    2f34:	ffff                	.insn	2, 0xffff
    2f36:	e300                	.insn	2, 0xe300
    2f38:	e3e3e3e3          	bltu	t2,t5,2d5e <BQueen+0xd2>
    2f3c:	e3e3e3e3          	bltu	t2,t5,2d62 <BQueen+0xd6>
    2f40:	e3e3e3e3          	bltu	t2,t5,2d66 <BQueen+0xda>
	...
    2f54:	0000                	.insn	2, 0x
    2f56:	e3e3e3e3          	bltu	t2,t5,2d7c <BQueen+0xf0>
    2f5a:	e3e3e3e3          	bltu	t2,t5,2d80 <BQueen+0xf4>
    2f5e:	e3e3e3e3          	bltu	t2,t5,2d84 <BQueen+0xf8>
	...
    2f72:	0000                	.insn	2, 0x
    2f74:	e3e3e3e3          	bltu	t2,t5,2d9a <BQueen+0x10e>
    2f78:	e3e3e3e3          	bltu	t2,t5,2d9e <BQueen+0x112>
    2f7c:	e3e3e3e3          	bltu	t2,t5,2da2 <BQueen+0x116>
	...
    2f90:	0000                	.insn	2, 0x
    2f92:	e3e3e3e3          	bltu	t2,t5,2db8 <BQueen+0x12c>
    2f96:	e3e3e3e3          	bltu	t2,t5,2dbc <BQueen+0x130>
    2f9a:	e3e3e3e3          	bltu	t2,t5,2dc0 <BQueen+0x134>
    2f9e:	e3e3e3e3          	bltu	t2,t5,2dc4 <BQueen+0x138>
    2fa2:	e3e3e3e3          	bltu	t2,t5,2dc8 <BQueen+0x13c>
    2fa6:	e3e3e3e3          	bltu	t2,t5,2dcc <BQueen+0x140>
    2faa:	e3e3e3e3          	bltu	t2,t5,2dd0 <BQueen+0x144>
    2fae:	e3e3e3e3          	bltu	t2,t5,2dd4 <BQueen+0x148>
    2fb2:	e3e3e3e3          	bltu	t2,t5,2dd8 <BQueen+0x14c>
    2fb6:	e3e3e3e3          	bltu	t2,t5,2ddc <BQueen+0x150>
    2fba:	e3e3e3e3          	bltu	t2,t5,2de0 <BQueen+0x154>
    2fbe:	e3e3e3e3          	bltu	t2,t5,2de4 <BQueen+0x158>
    2fc2:	e3e3e3e3          	bltu	t2,t5,2de8 <BQueen+0x15c>
    2fc6:	e3e3e3e3          	bltu	t2,t5,2dec <BQueen+0x160>
    2fca:	e3e3e3e3          	bltu	t2,t5,2df0 <BQueen+0x164>
    2fce:	e3e3e3e3          	bltu	t2,t5,2df4 <BQueen+0x168>
    2fd2:	e3e3e3e3          	bltu	t2,t5,2df8 <BQueen+0x16c>
    2fd6:	e3e3e3e3          	bltu	t2,t5,2dfc <BQueen+0x170>
    2fda:	e3e3e3e3          	bltu	t2,t5,2e00 <BQueen+0x174>
    2fde:	e3e3e3e3          	bltu	t2,t5,2e04 <BQueen+0x178>
    2fe2:	e3e3e3e3          	bltu	t2,t5,2e08 <BQueen+0x17c>
    2fe6:	e3e3e3e3          	bltu	t2,t5,2e0c <BQueen+0x180>
    2fea:	e3e3e3e3          	bltu	t2,t5,2e10 <BQueen+0x184>
    2fee:	e3e3e3e3          	bltu	t2,t5,2e14 <BQueen+0x188>
    2ff2:	e3e3e3e3          	bltu	t2,t5,2e18 <BQueen+0x18c>
    2ff6:	e3e3e3e3          	bltu	t2,t5,2e1c <BQueen+0x190>
    2ffa:	e3e3e3e3          	bltu	t2,t5,2e20 <BQueen+0x194>
    2ffe:	e3e3e3e3          	bltu	t2,t5,2e24 <BQueen+0x198>
    3002:	e3e3e3e3          	bltu	t2,t5,2e28 <BQueen+0x19c>
    3006:	e3e3e3e3          	bltu	t2,t5,2e2c <BQueen+0x1a0>
    300a:	e3e3e3e3          	bltu	t2,t5,2e30 <BQueen+0x1a4>
    300e:	          	bltu	t2,t5,2e34 <BQueen+0x1a8>

00003010 <BCastle>:
    3010:	e3e3e3e3          	bltu	t2,t5,2e36 <BQueen+0x1aa>
    3014:	e3e3e3e3          	bltu	t2,t5,2e3a <BQueen+0x1ae>
    3018:	e3e3e3e3          	bltu	t2,t5,2e3e <BQueen+0x1b2>
    301c:	e3e3e3e3          	bltu	t2,t5,2e42 <BQueen+0x1b6>
    3020:	e3e3e3e3          	bltu	t2,t5,2e46 <BQueen+0x1ba>
    3024:	e3e3e3e3          	bltu	t2,t5,2e4a <BQueen+0x1be>
    3028:	e3e3e3e3          	bltu	t2,t5,2e4e <BQueen+0x1c2>
    302c:	e3e3e3e3          	bltu	t2,t5,2e52 <BQueen+0x1c6>
    3030:	e3e3e3e3          	bltu	t2,t5,2e56 <BQueen+0x1ca>
    3034:	e3e3e3e3          	bltu	t2,t5,2e5a <BQueen+0x1ce>
    3038:	e3e3e3e3          	bltu	t2,t5,2e5e <BQueen+0x1d2>
    303c:	e3e3e3e3          	bltu	t2,t5,2e62 <BQueen+0x1d6>
    3040:	e3e3e3e3          	bltu	t2,t5,2e66 <BQueen+0x1da>
    3044:	e3e3e3e3          	bltu	t2,t5,2e6a <BQueen+0x1de>
    3048:	e3e3e3e3          	bltu	t2,t5,2e6e <BQueen+0x1e2>
    304c:	e3e3e3e3          	bltu	t2,t5,2e72 <BQueen+0x1e6>
    3050:	e3e3e3e3          	bltu	t2,t5,2e76 <BQueen+0x1ea>
    3054:	e3e3e3e3          	bltu	t2,t5,2e7a <BQueen+0x1ee>
    3058:	e3e3e3e3          	bltu	t2,t5,2e7e <BQueen+0x1f2>
    305c:	e3e3e3e3          	bltu	t2,t5,2e82 <BQueen+0x1f6>
    3060:	e3e3e3e3          	bltu	t2,t5,2e86 <BQueen+0x1fa>
    3064:	e3e3e3e3          	bltu	t2,t5,2e8a <BQueen+0x1fe>
    3068:	e3e3e3e3          	bltu	t2,t5,2e8e <BQueen+0x202>
    306c:	e3e3e3e3          	bltu	t2,t5,2e92 <BQueen+0x206>
    3070:	e3e3e3e3          	bltu	t2,t5,2e96 <BQueen+0x20a>
    3074:	e3e3e3e3          	bltu	t2,t5,2e9a <BQueen+0x20e>
    3078:	e3e3e3e3          	bltu	t2,t5,2e9e <BQueen+0x212>
    307c:	e3e3e3e3          	bltu	t2,t5,2ea2 <BQueen+0x216>
    3080:	e3e3e3e3          	bltu	t2,t5,2ea6 <BQueen+0x21a>
    3084:	e3e3e3e3          	bltu	t2,t5,2eaa <BQueen+0x21e>
    3088:	e3e3e3e3          	bltu	t2,t5,2eae <BQueen+0x222>
    308c:	e3e3e3e3          	bltu	t2,t5,2eb2 <BQueen+0x226>
    3090:	e3e3e3e3          	bltu	t2,t5,2eb6 <BQueen+0x22a>
    3094:	e3e3e3e3          	bltu	t2,t5,2eba <BQueen+0x22e>
    3098:	e3e3e3e3          	bltu	t2,t5,2ebe <BQueen+0x232>
    309c:	e3e3e3e3          	bltu	t2,t5,2ec2 <BQueen+0x236>
    30a0:	e3e3e3e3          	bltu	t2,t5,2ec6 <BQueen+0x23a>
    30a4:	e3e3e3e3          	bltu	t2,t5,2eca <BQueen+0x23e>
    30a8:	e3e3e3e3          	bltu	t2,t5,2ece <BQueen+0x242>
    30ac:	000000e3          	beqz	zero,38ac <BHorse+0x194>
    30b0:	e300                	.insn	2, 0xe300
    30b2:	000000e3          	beqz	zero,38b2 <BHorse+0x19a>
    30b6:	e300                	.insn	2, 0xe300
    30b8:	000000e3          	beqz	zero,38b8 <BHorse+0x1a0>
    30bc:	e300                	.insn	2, 0xe300
    30be:	e3e3e3e3          	bltu	t2,t5,2ee4 <BQueen+0x258>
    30c2:	e3e3e3e3          	bltu	t2,t5,2ee8 <BQueen+0x25c>
    30c6:	e3e3e3e3          	bltu	t2,t5,2eec <BQueen+0x260>
    30ca:	000000e3          	beqz	zero,38ca <BHorse+0x1b2>
	...
    30da:	e300                	.insn	2, 0xe300
    30dc:	e3e3e3e3          	bltu	t2,t5,2f02 <BQueen+0x276>
    30e0:	e3e3e3e3          	bltu	t2,t5,2f06 <BQueen+0x27a>
    30e4:	e3e3e3e3          	bltu	t2,t5,2f0a <BQueen+0x27e>
    30e8:	000000e3          	beqz	zero,38e8 <BHorse+0x1d0>
	...
    30f8:	e300                	.insn	2, 0xe300
    30fa:	e3e3e3e3          	bltu	t2,t5,2f20 <BQueen+0x294>
    30fe:	e3e3e3e3          	bltu	t2,t5,2f24 <BQueen+0x298>
    3102:	e3e3e3e3          	bltu	t2,t5,2f28 <BQueen+0x29c>
    3106:	000000e3          	beqz	zero,3906 <BHorse+0x1ee>
	...
    3116:	e300                	.insn	2, 0xe300
    3118:	e3e3e3e3          	bltu	t2,t5,2f3e <BQueen+0x2b2>
    311c:	e3e3e3e3          	bltu	t2,t5,2f42 <BQueen+0x2b6>
    3120:	e3e3e3e3          	bltu	t2,t5,2f46 <BQueen+0x2ba>
    3124:	000000e3          	beqz	zero,3924 <BHorse+0x20c>
	...
    3134:	e300                	.insn	2, 0xe300
    3136:	e3e3e3e3          	bltu	t2,t5,2f5c <__global_pointer+0x8>
    313a:	e3e3e3e3          	bltu	t2,t5,2f60 <__global_pointer+0xc>
    313e:	e3e3e3e3          	bltu	t2,t5,2f64 <__global_pointer+0x10>
    3142:	ff00e3e3          	bltu	ra,a6,3128 <BCastle+0x118>
    3146:	ffff                	.insn	2, 0xffff
    3148:	ffff                	.insn	2, 0xffff
    314a:	ffff                	.insn	2, 0xffff
    314c:	ffff                	.insn	2, 0xffff
    314e:	ffff                	.insn	2, 0xffff
    3150:	00ff e3e3 e3e3 e3e3 	.insn	10, 0xe3e3e3e3e3e3e3e300ff
    3158:	e3e3 
    315a:	e3e3e3e3          	bltu	t2,t5,2f80 <__global_pointer+0x2c>
    315e:	e3e3e3e3          	bltu	t2,t5,2f84 <__global_pointer+0x30>
    3162:	000000e3          	beqz	zero,3962 <BHorse+0x24a>
	...
    316e:	e300                	.insn	2, 0xe300
    3170:	e3e3e3e3          	bltu	t2,t5,2f96 <__global_pointer+0x42>
    3174:	e3e3e3e3          	bltu	t2,t5,2f9a <__global_pointer+0x46>
    3178:	e3e3e3e3          	bltu	t2,t5,2f9e <__global_pointer+0x4a>
    317c:	e3e3e3e3          	bltu	t2,t5,2fa2 <__global_pointer+0x4e>
    3180:	000000e3          	beqz	zero,3980 <BHorse+0x268>
	...
    318c:	e300                	.insn	2, 0xe300
    318e:	e3e3e3e3          	bltu	t2,t5,2fb4 <__global_pointer+0x60>
    3192:	e3e3e3e3          	bltu	t2,t5,2fb8 <__global_pointer+0x64>
    3196:	e3e3e3e3          	bltu	t2,t5,2fbc <__global_pointer+0x68>
    319a:	e3e3e3e3          	bltu	t2,t5,2fc0 <__global_pointer+0x6c>
    319e:	000000e3          	beqz	zero,399e <BHorse+0x286>
	...
    31aa:	e300                	.insn	2, 0xe300
    31ac:	e3e3e3e3          	bltu	t2,t5,2fd2 <__global_pointer+0x7e>
    31b0:	e3e3e3e3          	bltu	t2,t5,2fd6 <__global_pointer+0x82>
    31b4:	e3e3e3e3          	bltu	t2,t5,2fda <__global_pointer+0x86>
    31b8:	e3e3e3e3          	bltu	t2,t5,2fde <__global_pointer+0x8a>
    31bc:	000000e3          	beqz	zero,39bc <BHorse+0x2a4>
	...
    31c8:	e300                	.insn	2, 0xe300
    31ca:	e3e3e3e3          	bltu	t2,t5,2ff0 <__global_pointer+0x9c>
    31ce:	e3e3e3e3          	bltu	t2,t5,2ff4 <__global_pointer+0xa0>
    31d2:	e3e3e3e3          	bltu	t2,t5,2ff8 <__global_pointer+0xa4>
    31d6:	e3e3e3e3          	bltu	t2,t5,2ffc <__global_pointer+0xa8>
    31da:	000000e3          	beqz	zero,39da <BHorse+0x2c2>
	...
    31e6:	e300                	.insn	2, 0xe300
    31e8:	e3e3e3e3          	bltu	t2,t5,300e <__global_pointer+0xba>
    31ec:	e3e3e3e3          	bltu	t2,t5,3012 <BCastle+0x2>
    31f0:	e3e3e3e3          	bltu	t2,t5,3016 <BCastle+0x6>
    31f4:	e3e3e3e3          	bltu	t2,t5,301a <BCastle+0xa>
    31f8:	000000e3          	beqz	zero,39f8 <BHorse+0x2e0>
	...
    3204:	e300                	.insn	2, 0xe300
    3206:	e3e3e3e3          	bltu	t2,t5,302c <BCastle+0x1c>
    320a:	e3e3e3e3          	bltu	t2,t5,3030 <BCastle+0x20>
    320e:	e3e3e3e3          	bltu	t2,t5,3034 <BCastle+0x24>
    3212:	e3e3e3e3          	bltu	t2,t5,3038 <BCastle+0x28>
    3216:	000000e3          	beqz	zero,3a16 <BHorse+0x2fe>
	...
    3222:	e300                	.insn	2, 0xe300
    3224:	e3e3e3e3          	bltu	t2,t5,304a <BCastle+0x3a>
    3228:	e3e3e3e3          	bltu	t2,t5,304e <BCastle+0x3e>
    322c:	e3e3e3e3          	bltu	t2,t5,3052 <BCastle+0x42>
    3230:	e3e3e3e3          	bltu	t2,t5,3056 <BCastle+0x46>
    3234:	000000e3          	beqz	zero,3a34 <BHorse+0x31c>
	...
    3240:	e300                	.insn	2, 0xe300
    3242:	e3e3e3e3          	bltu	t2,t5,3068 <BCastle+0x58>
    3246:	e3e3e3e3          	bltu	t2,t5,306c <BCastle+0x5c>
    324a:	e3e3e3e3          	bltu	t2,t5,3070 <BCastle+0x60>
    324e:	e3e3e3e3          	bltu	t2,t5,3074 <BCastle+0x64>
    3252:	000000e3          	beqz	zero,3a52 <BHorse+0x33a>
	...
    325e:	e300                	.insn	2, 0xe300
    3260:	e3e3e3e3          	bltu	t2,t5,3086 <BCastle+0x76>
    3264:	e3e3e3e3          	bltu	t2,t5,308a <BCastle+0x7a>
    3268:	e3e3e3e3          	bltu	t2,t5,308e <BCastle+0x7e>
    326c:	e3e3e3e3          	bltu	t2,t5,3092 <BCastle+0x82>
    3270:	ff00                	.insn	2, 0xff00
    3272:	ffff                	.insn	2, 0xffff
    3274:	ffff                	.insn	2, 0xffff
    3276:	ffff                	.insn	2, 0xffff
    3278:	ffff                	.insn	2, 0xffff
    327a:	ffff                	.insn	2, 0xffff
    327c:	00ff e3e3 e3e3 e3e3 	.insn	10, 0xe3e3e3e3e3e3e3e300ff
    3284:	e3e3 
    3286:	e3e3e3e3          	bltu	t2,t5,30ac <BCastle+0x9c>
    328a:	00e3e3e3          	bltu	t2,a4,3a90 <BHorse+0x378>
	...
    329a:	0000                	.insn	2, 0x
    329c:	e300                	.insn	2, 0xe300
    329e:	e3e3e3e3          	bltu	t2,t5,30c4 <BCastle+0xb4>
    32a2:	e3e3e3e3          	bltu	t2,t5,30c8 <BCastle+0xb8>
    32a6:	e3e3e3e3          	bltu	t2,t5,30cc <BCastle+0xbc>
    32aa:	000000e3          	beqz	zero,3aaa <BSoldier+0xe>
	...
    32ba:	e300                	.insn	2, 0xe300
    32bc:	e3e3e3e3          	bltu	t2,t5,30e2 <BCastle+0xd2>
    32c0:	e3e3e3e3          	bltu	t2,t5,30e6 <BCastle+0xd6>
    32c4:	00e3e3e3          	bltu	t2,a4,3aca <BSoldier+0x2e>
    32c8:	ff00                	.insn	2, 0xff00
    32ca:	ffff                	.insn	2, 0xffff
    32cc:	ffff                	.insn	2, 0xffff
    32ce:	ffff                	.insn	2, 0xffff
    32d0:	ffff                	.insn	2, 0xffff
    32d2:	ffff                	.insn	2, 0xffff
    32d4:	ffff                	.insn	2, 0xffff
    32d6:	ffff                	.insn	2, 0xffff
    32d8:	00ff e300 e3e3 e3e3 	.insn	10, 0xe3e3e3e3e3e3e30000ff
    32e0:	e3e3 
    32e2:	00e3e3e3          	bltu	t2,a4,3ae8 <BSoldier+0x4c>
	...
    32f6:	0000                	.insn	2, 0x
    32f8:	e300                	.insn	2, 0xe300
    32fa:	e3e3e3e3          	bltu	t2,t5,3120 <BCastle+0x110>
    32fe:	e3e3e3e3          	bltu	t2,t5,3124 <BCastle+0x114>
    3302:	000000e3          	beqz	zero,3b02 <BSoldier+0x66>
	...
    3316:	e300                	.insn	2, 0xe300
    3318:	e3e3e3e3          	bltu	t2,t5,313e <BCastle+0x12e>
    331c:	e3e3e3e3          	bltu	t2,t5,3142 <BCastle+0x132>
    3320:	000000e3          	beqz	zero,3b20 <BSoldier+0x84>
	...
    3334:	e300                	.insn	2, 0xe300
    3336:	e3e3e3e3          	bltu	t2,t5,315c <BCastle+0x14c>
    333a:	e3e3e3e3          	bltu	t2,t5,3160 <BCastle+0x150>
    333e:	e3e3e3e3          	bltu	t2,t5,3164 <BCastle+0x154>
    3342:	e3e3e3e3          	bltu	t2,t5,3168 <BCastle+0x158>
    3346:	e3e3e3e3          	bltu	t2,t5,316c <BCastle+0x15c>
    334a:	e3e3e3e3          	bltu	t2,t5,3170 <BCastle+0x160>
    334e:	e3e3e3e3          	bltu	t2,t5,3174 <BCastle+0x164>
    3352:	e3e3e3e3          	bltu	t2,t5,3178 <BCastle+0x168>
    3356:	e3e3e3e3          	bltu	t2,t5,317c <BCastle+0x16c>
    335a:	e3e3e3e3          	bltu	t2,t5,3180 <BCastle+0x170>
    335e:	e3e3e3e3          	bltu	t2,t5,3184 <BCastle+0x174>
    3362:	e3e3e3e3          	bltu	t2,t5,3188 <BCastle+0x178>
    3366:	e3e3e3e3          	bltu	t2,t5,318c <BCastle+0x17c>
    336a:	e3e3e3e3          	bltu	t2,t5,3190 <BCastle+0x180>
    336e:	e3e3e3e3          	bltu	t2,t5,3194 <BCastle+0x184>
    3372:	e3e3e3e3          	bltu	t2,t5,3198 <BCastle+0x188>
    3376:	e3e3e3e3          	bltu	t2,t5,319c <BCastle+0x18c>
    337a:	e3e3e3e3          	bltu	t2,t5,31a0 <BCastle+0x190>
    337e:	e3e3e3e3          	bltu	t2,t5,31a4 <BCastle+0x194>
    3382:	e3e3e3e3          	bltu	t2,t5,31a8 <BCastle+0x198>
    3386:	e3e3e3e3          	bltu	t2,t5,31ac <BCastle+0x19c>
    338a:	e3e3e3e3          	bltu	t2,t5,31b0 <BCastle+0x1a0>
    338e:	e3e3e3e3          	bltu	t2,t5,31b4 <BCastle+0x1a4>
    3392:	          	bltu	t2,t5,31b8 <BCastle+0x1a8>

00003394 <BBishop>:
    3394:	e3e3e3e3          	bltu	t2,t5,31ba <BCastle+0x1aa>
    3398:	e3e3e3e3          	bltu	t2,t5,31be <BCastle+0x1ae>
    339c:	e3e3e3e3          	bltu	t2,t5,31c2 <BCastle+0x1b2>
    33a0:	e3e3e3e3          	bltu	t2,t5,31c6 <BCastle+0x1b6>
    33a4:	e3e3e3e3          	bltu	t2,t5,31ca <BCastle+0x1ba>
    33a8:	e3e3e3e3          	bltu	t2,t5,31ce <BCastle+0x1be>
    33ac:	e3e3e3e3          	bltu	t2,t5,31d2 <BCastle+0x1c2>
    33b0:	e3e3e3e3          	bltu	t2,t5,31d6 <BCastle+0x1c6>
    33b4:	e3e3e3e3          	bltu	t2,t5,31da <BCastle+0x1ca>
    33b8:	e3e3e3e3          	bltu	t2,t5,31de <BCastle+0x1ce>
    33bc:	e3e3e3e3          	bltu	t2,t5,31e2 <BCastle+0x1d2>
    33c0:	e3e3e3e3          	bltu	t2,t5,31e6 <BCastle+0x1d6>
    33c4:	e3e3e3e3          	bltu	t2,t5,31ea <BCastle+0x1da>
    33c8:	e3e3e3e3          	bltu	t2,t5,31ee <BCastle+0x1de>
    33cc:	e3e3e3e3          	bltu	t2,t5,31f2 <BCastle+0x1e2>
    33d0:	e3e3e3e3          	bltu	t2,t5,31f6 <BCastle+0x1e6>
    33d4:	e3e3e3e3          	bltu	t2,t5,31fa <BCastle+0x1ea>
    33d8:	e3e3e3e3          	bltu	t2,t5,31fe <BCastle+0x1ee>
    33dc:	e3e3e3e3          	bltu	t2,t5,3202 <BCastle+0x1f2>
    33e0:	e3e3e3e3          	bltu	t2,t5,3206 <BCastle+0x1f6>
    33e4:	e3e3e3e3          	bltu	t2,t5,320a <BCastle+0x1fa>
    33e8:	e3e3e3e3          	bltu	t2,t5,320e <BCastle+0x1fe>
    33ec:	e3e3e3e3          	bltu	t2,t5,3212 <BCastle+0x202>
    33f0:	e3e3e3e3          	bltu	t2,t5,3216 <BCastle+0x206>
    33f4:	e3e3e3e3          	bltu	t2,t5,321a <BCastle+0x20a>
    33f8:	e3e3e3e3          	bltu	t2,t5,321e <BCastle+0x20e>
    33fc:	0000                	.insn	2, 0x
    33fe:	e3e3e3e3          	bltu	t2,t5,3224 <BCastle+0x214>
    3402:	e3e3e3e3          	bltu	t2,t5,3228 <BCastle+0x218>
    3406:	e3e3e3e3          	bltu	t2,t5,322c <BCastle+0x21c>
    340a:	e3e3e3e3          	bltu	t2,t5,3230 <BCastle+0x220>
    340e:	e3e3e3e3          	bltu	t2,t5,3234 <BCastle+0x224>
    3412:	e3e3e3e3          	bltu	t2,t5,3238 <BCastle+0x228>
    3416:	00e3e3e3          	bltu	t2,a4,3c1c <BSoldier+0x180>
    341a:	0000                	.insn	2, 0x
    341c:	e300                	.insn	2, 0xe300
    341e:	e3e3e3e3          	bltu	t2,t5,3244 <BCastle+0x234>
    3422:	e3e3e3e3          	bltu	t2,t5,3248 <BCastle+0x238>
    3426:	e3e3e3e3          	bltu	t2,t5,324c <BCastle+0x23c>
    342a:	e3e3e3e3          	bltu	t2,t5,3250 <BCastle+0x240>
    342e:	e3e3e3e3          	bltu	t2,t5,3254 <BCastle+0x244>
    3432:	e3e3e3e3          	bltu	t2,t5,3258 <BCastle+0x248>
    3436:	000000e3          	beqz	zero,3c36 <BSoldier+0x19a>
    343a:	e300                	.insn	2, 0xe300
    343c:	e3e3e3e3          	bltu	t2,t5,3262 <BCastle+0x252>
    3440:	e3e3e3e3          	bltu	t2,t5,3266 <BCastle+0x256>
    3444:	e3e3e3e3          	bltu	t2,t5,326a <BCastle+0x25a>
    3448:	e3e3e3e3          	bltu	t2,t5,326e <BCastle+0x25e>
    344c:	e3e3e3e3          	bltu	t2,t5,3272 <BCastle+0x262>
    3450:	e3e3e3e3          	bltu	t2,t5,3276 <BCastle+0x266>
    3454:	0000e3e3          	bltu	ra,zero,3c5a <BSoldier+0x1be>
    3458:	e3e3e3e3          	bltu	t2,t5,327e <BCastle+0x26e>
    345c:	e3e3e3e3          	bltu	t2,t5,3282 <BCastle+0x272>
    3460:	e3e3e3e3          	bltu	t2,t5,3286 <BCastle+0x276>
    3464:	e3e3e3e3          	bltu	t2,t5,328a <BCastle+0x27a>
    3468:	e3e3e3e3          	bltu	t2,t5,328e <BCastle+0x27e>
    346c:	e3e3e3e3          	bltu	t2,t5,3292 <BCastle+0x282>
    3470:	0000e3e3          	bltu	ra,zero,3c76 <BSoldier+0x1da>
    3474:	0000                	.insn	2, 0x
    3476:	0000                	.insn	2, 0x
    3478:	e3e3e3e3          	bltu	t2,t5,329e <BCastle+0x28e>
    347c:	e3e3e3e3          	bltu	t2,t5,32a2 <BCastle+0x292>
    3480:	e3e3e3e3          	bltu	t2,t5,32a6 <BCastle+0x296>
    3484:	e3e3e3e3          	bltu	t2,t5,32aa <BCastle+0x29a>
    3488:	e3e3e3e3          	bltu	t2,t5,32ae <BCastle+0x29e>
    348c:	00e3e3e3          	bltu	t2,a4,3c92 <BSoldier+0x1f6>
    3490:	0000                	.insn	2, 0x
    3492:	0000                	.insn	2, 0x
    3494:	0000                	.insn	2, 0x
    3496:	e300                	.insn	2, 0xe300
    3498:	e3e3e3e3          	bltu	t2,t5,32be <BCastle+0x2ae>
    349c:	e3e3e3e3          	bltu	t2,t5,32c2 <BCastle+0x2b2>
    34a0:	e3e3e3e3          	bltu	t2,t5,32c6 <BCastle+0x2b6>
    34a4:	e3e3e3e3          	bltu	t2,t5,32ca <BCastle+0x2ba>
    34a8:	e3e3e3e3          	bltu	t2,t5,32ce <BCastle+0x2be>
    34ac:	0000                	.insn	2, 0x
    34ae:	0000                	.insn	2, 0x
    34b0:	ffff                	.insn	2, 0xffff
    34b2:	0000                	.insn	2, 0x
    34b4:	0000                	.insn	2, 0x
    34b6:	e3e3e3e3          	bltu	t2,t5,32dc <BCastle+0x2cc>
    34ba:	e3e3e3e3          	bltu	t2,t5,32e0 <BCastle+0x2d0>
    34be:	e3e3e3e3          	bltu	t2,t5,32e4 <BCastle+0x2d4>
    34c2:	e3e3e3e3          	bltu	t2,t5,32e8 <BCastle+0x2d8>
    34c6:	00e3e3e3          	bltu	t2,a4,3ccc <BSoldier+0x230>
    34ca:	0000                	.insn	2, 0x
    34cc:	ff00                	.insn	2, 0xff00
    34ce:	ffff                	.insn	2, 0xffff
    34d0:	00ff 0000 e300 e3e3 	.insn	10, 0xe3e3e3e3e300000000ff
    34d8:	e3e3 
    34da:	e3e3e3e3          	bltu	t2,t5,3300 <BCastle+0x2f0>
    34de:	e3e3e3e3          	bltu	t2,t5,3304 <BCastle+0x2f4>
    34e2:	e3e3e3e3          	bltu	t2,t5,3308 <BCastle+0x2f8>
    34e6:	0000                	.insn	2, 0x
    34e8:	0000                	.insn	2, 0x
    34ea:	ff00                	.insn	2, 0xff00
    34ec:	ffff                	.insn	2, 0xffff
    34ee:	00ff 0000 0000 e3e3 	.insn	10, 0xe3e3e3e30000000000ff
    34f6:	e3e3 
    34f8:	e3e3e3e3          	bltu	t2,t5,331e <BCastle+0x30e>
    34fc:	e3e3e3e3          	bltu	t2,t5,3322 <BCastle+0x312>
    3500:	e3e3e3e3          	bltu	t2,t5,3326 <BCastle+0x316>
    3504:	0000                	.insn	2, 0x
    3506:	0000                	.insn	2, 0x
    3508:	0000                	.insn	2, 0x
    350a:	ffff                	.insn	2, 0xffff
    350c:	0000                	.insn	2, 0x
    350e:	0000                	.insn	2, 0x
    3510:	0000                	.insn	2, 0x
    3512:	e3e3e3e3          	bltu	t2,t5,3338 <BCastle+0x328>
    3516:	e3e3e3e3          	bltu	t2,t5,333c <BCastle+0x32c>
    351a:	e3e3e3e3          	bltu	t2,t5,3340 <BCastle+0x330>
    351e:	e3e3e3e3          	bltu	t2,t5,3344 <BCastle+0x334>
	...
    352e:	0000                	.insn	2, 0x
    3530:	e3e3e3e3          	bltu	t2,t5,3356 <BCastle+0x346>
    3534:	e3e3e3e3          	bltu	t2,t5,335a <BCastle+0x34a>
    3538:	e3e3e3e3          	bltu	t2,t5,335e <BCastle+0x34e>
    353c:	e3e3e3e3          	bltu	t2,t5,3362 <BCastle+0x352>
	...
    354c:	0000                	.insn	2, 0x
    354e:	e3e3e3e3          	bltu	t2,t5,3374 <BCastle+0x364>
    3552:	e3e3e3e3          	bltu	t2,t5,3378 <BCastle+0x368>
    3556:	e3e3e3e3          	bltu	t2,t5,337c <BCastle+0x36c>
    355a:	e3e3e3e3          	bltu	t2,t5,3380 <BCastle+0x370>
    355e:	000000e3          	beqz	zero,3d5e <BSoldier+0x2c2>
	...
    356a:	e300                	.insn	2, 0xe300
    356c:	e3e3e3e3          	bltu	t2,t5,3392 <BCastle+0x382>
    3570:	e3e3e3e3          	bltu	t2,t5,3396 <BBishop+0x2>
    3574:	e3e3e3e3          	bltu	t2,t5,339a <BBishop+0x6>
    3578:	e3e3e3e3          	bltu	t2,t5,339e <BBishop+0xa>
    357c:	ff00e3e3          	bltu	ra,a6,3562 <BBishop+0x1ce>
    3580:	ffff                	.insn	2, 0xffff
    3582:	ffff                	.insn	2, 0xffff
    3584:	ffff                	.insn	2, 0xffff
    3586:	00ff e3e3 e3e3 e3e3 	.insn	10, 0xe3e3e3e3e3e3e3e300ff
    358e:	e3e3 
    3590:	e3e3e3e3          	bltu	t2,t5,33b6 <BBishop+0x22>
    3594:	e3e3e3e3          	bltu	t2,t5,33ba <BBishop+0x26>
    3598:	e3e3e3e3          	bltu	t2,t5,33be <BBishop+0x2a>
    359c:	000000e3          	beqz	zero,3d9c <BSoldier+0x300>
    35a0:	0000                	.insn	2, 0x
    35a2:	0000                	.insn	2, 0x
    35a4:	e300                	.insn	2, 0xe300
    35a6:	e3e3e3e3          	bltu	t2,t5,33cc <BBishop+0x38>
    35aa:	e3e3e3e3          	bltu	t2,t5,33d0 <BBishop+0x3c>
    35ae:	e3e3e3e3          	bltu	t2,t5,33d4 <BBishop+0x40>
    35b2:	e3e3e3e3          	bltu	t2,t5,33d8 <BBishop+0x44>
    35b6:	e3e3e3e3          	bltu	t2,t5,33dc <BBishop+0x48>
	...
    35c2:	0000                	.insn	2, 0x
    35c4:	e3e3e3e3          	bltu	t2,t5,33ea <BBishop+0x56>
    35c8:	e3e3e3e3          	bltu	t2,t5,33ee <BBishop+0x5a>
    35cc:	e3e3e3e3          	bltu	t2,t5,33f2 <BBishop+0x5e>
    35d0:	e3e3e3e3          	bltu	t2,t5,33f6 <BBishop+0x62>
    35d4:	00e3e3e3          	bltu	t2,a4,3dda <BSoldier+0x33e>
    35d8:	ffff                	.insn	2, 0xffff
    35da:	ffff                	.insn	2, 0xffff
    35dc:	ffff                	.insn	2, 0xffff
    35de:	ffff                	.insn	2, 0xffff
    35e0:	ffff                	.insn	2, 0xffff
    35e2:	e300                	.insn	2, 0xe300
    35e4:	e3e3e3e3          	bltu	t2,t5,340a <BBishop+0x76>
    35e8:	e3e3e3e3          	bltu	t2,t5,340e <BBishop+0x7a>
    35ec:	e3e3e3e3          	bltu	t2,t5,3412 <BBishop+0x7e>
    35f0:	e3e3e3e3          	bltu	t2,t5,3416 <BBishop+0x82>
    35f4:	000000e3          	beqz	zero,3df4 <BSoldier+0x358>
	...
    3600:	e300                	.insn	2, 0xe300
    3602:	e3e3e3e3          	bltu	t2,t5,3428 <BBishop+0x94>
    3606:	e3e3e3e3          	bltu	t2,t5,342c <BBishop+0x98>
    360a:	e3e3e3e3          	bltu	t2,t5,3430 <BBishop+0x9c>
    360e:	e3e3e3e3          	bltu	t2,t5,3434 <BBishop+0xa0>
    3612:	0000e3e3          	bltu	ra,zero,3e18 <BSoldier+0x37c>
	...
    361e:	e3e3e3e3          	bltu	t2,t5,3444 <BBishop+0xb0>
    3622:	e3e3e3e3          	bltu	t2,t5,3448 <BBishop+0xb4>
    3626:	e3e3e3e3          	bltu	t2,t5,344c <BBishop+0xb8>
    362a:	e3e3e3e3          	bltu	t2,t5,3450 <BBishop+0xbc>
    362e:	e3e3e3e3          	bltu	t2,t5,3454 <BBishop+0xc0>
    3632:	000000e3          	beqz	zero,3e32 <WKing+0x12>
    3636:	0000                	.insn	2, 0x
    3638:	0000                	.insn	2, 0x
    363a:	e300                	.insn	2, 0xe300
    363c:	e3e3e3e3          	bltu	t2,t5,3462 <BBishop+0xce>
    3640:	e3e3e3e3          	bltu	t2,t5,3466 <BBishop+0xd2>
    3644:	e3e3e3e3          	bltu	t2,t5,346a <BBishop+0xd6>
    3648:	00e3e3e3          	bltu	t2,a4,3e4e <WKing+0x2e>
	...
    365c:	0000                	.insn	2, 0x
    365e:	e300                	.insn	2, 0xe300
    3660:	e3e3e3e3          	bltu	t2,t5,3486 <BBishop+0xf2>
    3664:	00e3e3e3          	bltu	t2,a4,3e6a <WKing+0x4a>
	...
    367c:	0000                	.insn	2, 0x
    367e:	e300                	.insn	2, 0xe300
    3680:	e3e3e3e3          	bltu	t2,t5,34a6 <BBishop+0x112>
    3684:	000000e3          	beqz	zero,3e84 <WKing+0x64>
	...
    3690:	0000e3e3          	bltu	ra,zero,3e96 <WKing+0x76>
	...
    369c:	e300                	.insn	2, 0xe300
    369e:	e3e3e3e3          	bltu	t2,t5,34c4 <BBishop+0x130>
    36a2:	000000e3          	beqz	zero,3ea2 <WKing+0x82>
    36a6:	0000                	.insn	2, 0x
    36a8:	e3e3e3e3          	bltu	t2,t5,34ce <BBishop+0x13a>
    36ac:	e3e3e3e3          	bltu	t2,t5,34d2 <BBishop+0x13e>
    36b0:	e3e3e3e3          	bltu	t2,t5,34d6 <BBishop+0x142>
    36b4:	0000e3e3          	bltu	ra,zero,3eba <WKing+0x9a>
    36b8:	0000                	.insn	2, 0x
    36ba:	e300                	.insn	2, 0xe300
    36bc:	e3e3e3e3          	bltu	t2,t5,34e2 <BBishop+0x14e>
    36c0:	e3e3e3e3          	bltu	t2,t5,34e6 <BBishop+0x152>
    36c4:	e3e3e3e3          	bltu	t2,t5,34ea <BBishop+0x156>
    36c8:	e3e3e3e3          	bltu	t2,t5,34ee <BBishop+0x15a>
    36cc:	e3e3e3e3          	bltu	t2,t5,34f2 <BBishop+0x15e>
    36d0:	e3e3e3e3          	bltu	t2,t5,34f6 <BBishop+0x162>
    36d4:	e3e3e3e3          	bltu	t2,t5,34fa <BBishop+0x166>
    36d8:	e3e3e3e3          	bltu	t2,t5,34fe <BBishop+0x16a>
    36dc:	e3e3e3e3          	bltu	t2,t5,3502 <BBishop+0x16e>
    36e0:	e3e3e3e3          	bltu	t2,t5,3506 <BBishop+0x172>
    36e4:	e3e3e3e3          	bltu	t2,t5,350a <BBishop+0x176>
    36e8:	e3e3e3e3          	bltu	t2,t5,350e <BBishop+0x17a>
    36ec:	e3e3e3e3          	bltu	t2,t5,3512 <BBishop+0x17e>
    36f0:	e3e3e3e3          	bltu	t2,t5,3516 <BBishop+0x182>
    36f4:	e3e3e3e3          	bltu	t2,t5,351a <BBishop+0x186>
    36f8:	e3e3e3e3          	bltu	t2,t5,351e <BBishop+0x18a>
    36fc:	e3e3e3e3          	bltu	t2,t5,3522 <BBishop+0x18e>
    3700:	e3e3e3e3          	bltu	t2,t5,3526 <BBishop+0x192>
    3704:	e3e3e3e3          	bltu	t2,t5,352a <BBishop+0x196>
    3708:	e3e3e3e3          	bltu	t2,t5,352e <BBishop+0x19a>
    370c:	e3e3e3e3          	bltu	t2,t5,3532 <BBishop+0x19e>
    3710:	e3e3e3e3          	bltu	t2,t5,3536 <BBishop+0x1a2>
    3714:	e3e3e3e3          	bltu	t2,t5,353a <BBishop+0x1a6>

00003718 <BHorse>:
    3718:	e3e3e3e3          	bltu	t2,t5,353e <BBishop+0x1aa>
    371c:	e3e3e3e3          	bltu	t2,t5,3542 <BBishop+0x1ae>
    3720:	e3e3e3e3          	bltu	t2,t5,3546 <BBishop+0x1b2>
    3724:	e3e3e3e3          	bltu	t2,t5,354a <BBishop+0x1b6>
    3728:	e3e3e3e3          	bltu	t2,t5,354e <BBishop+0x1ba>
    372c:	e3e3e3e3          	bltu	t2,t5,3552 <BBishop+0x1be>
    3730:	e3e3e3e3          	bltu	t2,t5,3556 <BBishop+0x1c2>
    3734:	e3e3e3e3          	bltu	t2,t5,355a <BBishop+0x1c6>
    3738:	e3e3e3e3          	bltu	t2,t5,355e <BBishop+0x1ca>
    373c:	e3e3e3e3          	bltu	t2,t5,3562 <BBishop+0x1ce>
    3740:	e3e3e3e3          	bltu	t2,t5,3566 <BBishop+0x1d2>
    3744:	e3e3e3e3          	bltu	t2,t5,356a <BBishop+0x1d6>
    3748:	e3e3e3e3          	bltu	t2,t5,356e <BBishop+0x1da>
    374c:	e3e3e3e3          	bltu	t2,t5,3572 <BBishop+0x1de>
    3750:	e3e3e3e3          	bltu	t2,t5,3576 <BBishop+0x1e2>
    3754:	e3e3e3e3          	bltu	t2,t5,357a <BBishop+0x1e6>
    3758:	e3e3e3e3          	bltu	t2,t5,357e <BBishop+0x1ea>
    375c:	e3e3e3e3          	bltu	t2,t5,3582 <BBishop+0x1ee>
    3760:	e3e3e3e3          	bltu	t2,t5,3586 <BBishop+0x1f2>
    3764:	e3e3e3e3          	bltu	t2,t5,358a <BBishop+0x1f6>
    3768:	e3e3e3e3          	bltu	t2,t5,358e <BBishop+0x1fa>
    376c:	e3e3e3e3          	bltu	t2,t5,3592 <BBishop+0x1fe>
    3770:	e3e3e3e3          	bltu	t2,t5,3596 <BBishop+0x202>
    3774:	e3e3e3e3          	bltu	t2,t5,359a <BBishop+0x206>
    3778:	e3e3e3e3          	bltu	t2,t5,359e <BBishop+0x20a>
    377c:	e3e3e3e3          	bltu	t2,t5,35a2 <BBishop+0x20e>
    3780:	e3e3e3e3          	bltu	t2,t5,35a6 <BBishop+0x212>
    3784:	e3e3e3e3          	bltu	t2,t5,35aa <BBishop+0x216>
    3788:	e3e3e3e3          	bltu	t2,t5,35ae <BBishop+0x21a>
    378c:	e3e3e3e3          	bltu	t2,t5,35b2 <BBishop+0x21e>
    3790:	e3e3e3e3          	bltu	t2,t5,35b6 <BBishop+0x222>
    3794:	e3e3e3e3          	bltu	t2,t5,35ba <BBishop+0x226>
    3798:	0000                	.insn	2, 0x
    379a:	00e3e3e3          	bltu	t2,a4,3fa0 <WKing+0x180>
    379e:	e300                	.insn	2, 0xe300
    37a0:	e3e3e3e3          	bltu	t2,t5,35c6 <BBishop+0x232>
    37a4:	e3e3e3e3          	bltu	t2,t5,35ca <BBishop+0x236>
    37a8:	e3e3e3e3          	bltu	t2,t5,35ce <BBishop+0x23a>
    37ac:	e3e3e3e3          	bltu	t2,t5,35d2 <BBishop+0x23e>
    37b0:	e3e3e3e3          	bltu	t2,t5,35d6 <BBishop+0x242>
    37b4:	0000e3e3          	bltu	ra,zero,3fba <WKing+0x19a>
    37b8:	e300                	.insn	2, 0xe300
    37ba:	0000                	.insn	2, 0x
    37bc:	e300                	.insn	2, 0xe300
    37be:	e3e3e3e3          	bltu	t2,t5,35e4 <BBishop+0x250>
    37c2:	e3e3e3e3          	bltu	t2,t5,35e8 <BBishop+0x254>
    37c6:	e3e3e3e3          	bltu	t2,t5,35ec <BBishop+0x258>
    37ca:	e3e3e3e3          	bltu	t2,t5,35f0 <BBishop+0x25c>
    37ce:	e3e3e3e3          	bltu	t2,t5,35f4 <BBishop+0x260>
    37d2:	0000e3e3          	bltu	ra,zero,3fd8 <WKing+0x1b8>
	...
    37de:	e300                	.insn	2, 0xe300
    37e0:	e3e3e3e3          	bltu	t2,t5,3606 <BBishop+0x272>
    37e4:	e3e3e3e3          	bltu	t2,t5,360a <BBishop+0x276>
    37e8:	e3e3e3e3          	bltu	t2,t5,360e <BBishop+0x27a>
    37ec:	e3e3e3e3          	bltu	t2,t5,3612 <BBishop+0x27e>
    37f0:	00e3e3e3          	bltu	t2,a4,3ff6 <WKing+0x1d6>
	...
    37fc:	00ff e3e3 e3e3 e3e3 	.insn	10, 0xe3e3e3e3e3e3e3e300ff
    3804:	e3e3 
    3806:	e3e3e3e3          	bltu	t2,t5,362c <BBishop+0x298>
    380a:	e3e3e3e3          	bltu	t2,t5,3630 <BBishop+0x29c>
    380e:	0000e3e3          	bltu	ra,zero,4014 <WKing+0x1f4>
	...
    381a:	ff00                	.insn	2, 0xff00
    381c:	e300                	.insn	2, 0xe300
    381e:	e3e3e3e3          	bltu	t2,t5,3644 <BBishop+0x2b0>
    3822:	e3e3e3e3          	bltu	t2,t5,3648 <BBishop+0x2b4>
    3826:	e3e3e3e3          	bltu	t2,t5,364c <BBishop+0x2b8>
    382a:	00e3e3e3          	bltu	t2,a4,4030 <WKing+0x210>
    382e:	ff00                	.insn	2, 0xff00
	...
    3838:	0000                	.insn	2, 0x
    383a:	00ff e3e3 e3e3 e3e3 	.insn	10, 0xe3e3e3e3e3e3e3e300ff
    3842:	e3e3 
    3844:	e3e3e3e3          	bltu	t2,t5,366a <BBishop+0x2d6>
    3848:	00e3e3e3          	bltu	t2,a4,404e <WKing+0x22e>
    384c:	ffff                	.insn	2, 0xffff
	...
    3856:	0000                	.insn	2, 0x
    3858:	ff00                	.insn	2, 0xff00
    385a:	e300                	.insn	2, 0xe300
    385c:	e3e3e3e3          	bltu	t2,t5,3682 <BBishop+0x2ee>
    3860:	e3e3e3e3          	bltu	t2,t5,3686 <BBishop+0x2f2>
    3864:	e3e3e3e3          	bltu	t2,t5,368a <BBishop+0x2f6>
    3868:	0000                	.insn	2, 0x
    386a:	00ff 0000 0000 0000 	.insn	10, 0x00ff
    3872:	0000 
    3874:	0000                	.insn	2, 0x
    3876:	0000                	.insn	2, 0x
    3878:	00ff e3e3 e3e3 e3e3 	.insn	10, 0xe3e3e3e3e3e3e3e300ff
    3880:	e3e3 
    3882:	00e3e3e3          	bltu	t2,a4,4088 <WKing+0x268>
	...
    3896:	00ff e3e3 e3e3 e3e3 	.insn	10, 0xe3e3e3e3e3e3e3e300ff
    389e:	e3e3 
    38a0:	00e3e3e3          	bltu	t2,a4,40a6 <WKing+0x286>
	...
    38b4:	ff00                	.insn	2, 0xff00
    38b6:	e300                	.insn	2, 0xe300
    38b8:	e3e3e3e3          	bltu	t2,t5,36de <BBishop+0x34a>
    38bc:	e3e3e3e3          	bltu	t2,t5,36e2 <BBishop+0x34e>
	...
    38d0:	0000                	.insn	2, 0x
    38d2:	ff00                	.insn	2, 0xff00
    38d4:	e300                	.insn	2, 0xe300
    38d6:	e3e3e3e3          	bltu	t2,t5,36fc <BBishop+0x368>
    38da:	e3e3e3e3          	bltu	t2,t5,3700 <BBishop+0x36c>
	...
    38e6:	0000                	.insn	2, 0x
    38e8:	000000e3          	beqz	zero,40e8 <WKing+0x2c8>
    38ec:	0000                	.insn	2, 0x
    38ee:	0000                	.insn	2, 0x
    38f0:	ff00                	.insn	2, 0xff00
    38f2:	e300                	.insn	2, 0xe300
    38f4:	e3e3e3e3          	bltu	t2,t5,371a <BHorse+0x2>
    38f8:	00e3e3e3          	bltu	t2,a4,40fe <WKing+0x2de>
    38fc:	ff00                	.insn	2, 0xff00
    38fe:	00ff 0000 0000 e300 	.insn	10, 0x00e3e3000000000000ff
    3906:	00e3 
    3908:	0000                	.insn	2, 0x
    390a:	0000                	.insn	2, 0x
    390c:	0000                	.insn	2, 0x
    390e:	ff00                	.insn	2, 0xff00
    3910:	e300                	.insn	2, 0xe300
    3912:	e3e3e3e3          	bltu	t2,t5,3738 <BHorse+0x20>
    3916:	00e3e3e3          	bltu	t2,a4,411c <WKing+0x2fc>
    391a:	ff00                	.insn	2, 0xff00
    391c:	00ff 0000 0000 e3e3 	.insn	10, 0x00e3e3e30000000000ff
    3924:	00e3 
	...
    392e:	00ff e3e3 e3e3 e3e3 	.insn	10, 0x00e3e3e3e3e3e3e300ff
    3936:	00e3 
    3938:	0000                	.insn	2, 0x
    393a:	0000                	.insn	2, 0x
    393c:	0000                	.insn	2, 0x
    393e:	e300                	.insn	2, 0xe300
    3940:	0000e3e3          	bltu	ra,zero,4146 <WKing+0x326>
	...
    394c:	00ff e3e3 e3e3 e3e3 	.insn	10, 0xe3e3e3e3e3e3e3e300ff
    3954:	e3e3 
    3956:	0000                	.insn	2, 0x
    3958:	0000                	.insn	2, 0x
    395a:	0000                	.insn	2, 0x
    395c:	00e3e3e3          	bltu	t2,a4,4162 <WKing+0x342>
	...
    3968:	0000                	.insn	2, 0x
    396a:	00ff e3e3 e3e3 e3e3 	.insn	10, 0xe3e3e3e3e3e3e3e300ff
    3972:	e3e3 
    3974:	000000e3          	beqz	zero,4174 <WKing+0x354>
    3978:	e300                	.insn	2, 0xe300
    397a:	0000e3e3          	bltu	ra,zero,4180 <WKing+0x360>
	...
    3986:	0000                	.insn	2, 0x
    3988:	00ff e3e3 e3e3 e3e3 	.insn	10, 0xe3e3e3e3e3e3e3e300ff
    3990:	e3e3 
    3992:	e3e3e3e3          	bltu	t2,t5,37b8 <BHorse+0xa0>
    3996:	00e3e3e3          	bltu	t2,a4,419c <WKing+0x37c>
	...
    39a6:	00ff e3e3 e3e3 e3e3 	.insn	10, 0xe3e3e3e3e3e3e3e300ff
    39ae:	e3e3 
    39b0:	e3e3e3e3          	bltu	t2,t5,37d6 <BHorse+0xbe>
    39b4:	0000e3e3          	bltu	ra,zero,41ba <WQueen+0x16>
	...
    39c4:	00ff e3e3 e3e3 e3e3 	.insn	10, 0xe3e3e3e3e3e3e3e300ff
    39cc:	e3e3 
    39ce:	e3e3e3e3          	bltu	t2,t5,37f4 <BHorse+0xdc>
    39d2:	0000e3e3          	bltu	ra,zero,41d8 <WQueen+0x34>
	...
    39e2:	00ff e3e3 e3e3 e3e3 	.insn	10, 0xe3e3e3e3e3e3e3e300ff
    39ea:	e3e3 
    39ec:	e3e3e3e3          	bltu	t2,t5,3812 <BHorse+0xfa>
    39f0:	0000e3e3          	bltu	ra,zero,41f6 <WQueen+0x52>
	...
    3a00:	00ff e3e3 e3e3 e3e3 	.insn	10, 0xe3e3e3e3e3e3e3e300ff
    3a08:	e3e3 
    3a0a:	e3e3e3e3          	bltu	t2,t5,3830 <BHorse+0x118>
    3a0e:	0000e3e3          	bltu	ra,zero,4214 <WQueen+0x70>
	...
    3a1e:	0000                	.insn	2, 0x
    3a20:	e3e3e3e3          	bltu	t2,t5,3846 <BHorse+0x12e>
    3a24:	e3e3e3e3          	bltu	t2,t5,384a <BHorse+0x132>
    3a28:	e3e3e3e3          	bltu	t2,t5,384e <BHorse+0x136>
    3a2c:	e3e3e3e3          	bltu	t2,t5,3852 <BHorse+0x13a>
    3a30:	e3e3e3e3          	bltu	t2,t5,3856 <BHorse+0x13e>
    3a34:	e3e3e3e3          	bltu	t2,t5,385a <BHorse+0x142>
    3a38:	e3e3e3e3          	bltu	t2,t5,385e <BHorse+0x146>
    3a3c:	e3e3e3e3          	bltu	t2,t5,3862 <BHorse+0x14a>
    3a40:	e3e3e3e3          	bltu	t2,t5,3866 <BHorse+0x14e>
    3a44:	e3e3e3e3          	bltu	t2,t5,386a <BHorse+0x152>
    3a48:	e3e3e3e3          	bltu	t2,t5,386e <BHorse+0x156>
    3a4c:	e3e3e3e3          	bltu	t2,t5,3872 <BHorse+0x15a>
    3a50:	e3e3e3e3          	bltu	t2,t5,3876 <BHorse+0x15e>
    3a54:	e3e3e3e3          	bltu	t2,t5,387a <BHorse+0x162>
    3a58:	e3e3e3e3          	bltu	t2,t5,387e <BHorse+0x166>
    3a5c:	e3e3e3e3          	bltu	t2,t5,3882 <BHorse+0x16a>
    3a60:	e3e3e3e3          	bltu	t2,t5,3886 <BHorse+0x16e>
    3a64:	e3e3e3e3          	bltu	t2,t5,388a <BHorse+0x172>
    3a68:	e3e3e3e3          	bltu	t2,t5,388e <BHorse+0x176>
    3a6c:	e3e3e3e3          	bltu	t2,t5,3892 <BHorse+0x17a>
    3a70:	e3e3e3e3          	bltu	t2,t5,3896 <BHorse+0x17e>
    3a74:	e3e3e3e3          	bltu	t2,t5,389a <BHorse+0x182>
    3a78:	e3e3e3e3          	bltu	t2,t5,389e <BHorse+0x186>
    3a7c:	e3e3e3e3          	bltu	t2,t5,38a2 <BHorse+0x18a>
    3a80:	e3e3e3e3          	bltu	t2,t5,38a6 <BHorse+0x18e>
    3a84:	e3e3e3e3          	bltu	t2,t5,38aa <BHorse+0x192>
    3a88:	e3e3e3e3          	bltu	t2,t5,38ae <BHorse+0x196>
    3a8c:	e3e3e3e3          	bltu	t2,t5,38b2 <BHorse+0x19a>
    3a90:	e3e3e3e3          	bltu	t2,t5,38b6 <BHorse+0x19e>
    3a94:	e3e3e3e3          	bltu	t2,t5,38ba <BHorse+0x1a2>
    3a98:	e3e3e3e3          	bltu	t2,t5,38be <BHorse+0x1a6>

00003a9c <BSoldier>:
    3a9c:	e3e3e3e3          	bltu	t2,t5,38c2 <BHorse+0x1aa>
    3aa0:	e3e3e3e3          	bltu	t2,t5,38c6 <BHorse+0x1ae>
    3aa4:	e3e3e3e3          	bltu	t2,t5,38ca <BHorse+0x1b2>
    3aa8:	e3e3e3e3          	bltu	t2,t5,38ce <BHorse+0x1b6>
    3aac:	e3e3e3e3          	bltu	t2,t5,38d2 <BHorse+0x1ba>
    3ab0:	e3e3e3e3          	bltu	t2,t5,38d6 <BHorse+0x1be>
    3ab4:	e3e3e3e3          	bltu	t2,t5,38da <BHorse+0x1c2>
    3ab8:	e3e3e3e3          	bltu	t2,t5,38de <BHorse+0x1c6>
    3abc:	e3e3e3e3          	bltu	t2,t5,38e2 <BHorse+0x1ca>
    3ac0:	e3e3e3e3          	bltu	t2,t5,38e6 <BHorse+0x1ce>
    3ac4:	e3e3e3e3          	bltu	t2,t5,38ea <BHorse+0x1d2>
    3ac8:	e3e3e3e3          	bltu	t2,t5,38ee <BHorse+0x1d6>
    3acc:	e3e3e3e3          	bltu	t2,t5,38f2 <BHorse+0x1da>
    3ad0:	e3e3e3e3          	bltu	t2,t5,38f6 <BHorse+0x1de>
    3ad4:	e3e3e3e3          	bltu	t2,t5,38fa <BHorse+0x1e2>
    3ad8:	e3e3e3e3          	bltu	t2,t5,38fe <BHorse+0x1e6>
    3adc:	e3e3e3e3          	bltu	t2,t5,3902 <BHorse+0x1ea>
    3ae0:	e3e3e3e3          	bltu	t2,t5,3906 <BHorse+0x1ee>
    3ae4:	e3e3e3e3          	bltu	t2,t5,390a <BHorse+0x1f2>
    3ae8:	e3e3e3e3          	bltu	t2,t5,390e <BHorse+0x1f6>
    3aec:	e3e3e3e3          	bltu	t2,t5,3912 <BHorse+0x1fa>
    3af0:	e3e3e3e3          	bltu	t2,t5,3916 <BHorse+0x1fe>
    3af4:	e3e3e3e3          	bltu	t2,t5,391a <BHorse+0x202>
    3af8:	e3e3e3e3          	bltu	t2,t5,391e <BHorse+0x206>
    3afc:	e3e3e3e3          	bltu	t2,t5,3922 <BHorse+0x20a>
    3b00:	e3e3e3e3          	bltu	t2,t5,3926 <BHorse+0x20e>
    3b04:	e3e3e3e3          	bltu	t2,t5,392a <BHorse+0x212>
    3b08:	e3e3e3e3          	bltu	t2,t5,392e <BHorse+0x216>
    3b0c:	e3e3e3e3          	bltu	t2,t5,3932 <BHorse+0x21a>
    3b10:	e3e3e3e3          	bltu	t2,t5,3936 <BHorse+0x21e>
    3b14:	e3e3e3e3          	bltu	t2,t5,393a <BHorse+0x222>
    3b18:	e3e3e3e3          	bltu	t2,t5,393e <BHorse+0x226>
    3b1c:	e3e3e3e3          	bltu	t2,t5,3942 <BHorse+0x22a>
    3b20:	e3e3e3e3          	bltu	t2,t5,3946 <BHorse+0x22e>
    3b24:	e3e3e3e3          	bltu	t2,t5,394a <BHorse+0x232>
    3b28:	e3e3e3e3          	bltu	t2,t5,394e <BHorse+0x236>
    3b2c:	e3e3e3e3          	bltu	t2,t5,3952 <BHorse+0x23a>
    3b30:	e3e3e3e3          	bltu	t2,t5,3956 <BHorse+0x23e>
    3b34:	e3e3e3e3          	bltu	t2,t5,395a <BHorse+0x242>
    3b38:	e3e3e3e3          	bltu	t2,t5,395e <BHorse+0x246>
    3b3c:	00e3e3e3          	bltu	t2,a4,4342 <WQueen+0x19e>
    3b40:	0000                	.insn	2, 0x
    3b42:	e3e3e3e3          	bltu	t2,t5,3968 <BHorse+0x250>
    3b46:	e3e3e3e3          	bltu	t2,t5,396c <BHorse+0x254>
    3b4a:	e3e3e3e3          	bltu	t2,t5,3970 <BHorse+0x258>
    3b4e:	e3e3e3e3          	bltu	t2,t5,3974 <BHorse+0x25c>
    3b52:	e3e3e3e3          	bltu	t2,t5,3978 <BHorse+0x260>
    3b56:	e3e3e3e3          	bltu	t2,t5,397c <BHorse+0x264>
    3b5a:	0000e3e3          	bltu	ra,zero,4360 <WQueen+0x1bc>
    3b5e:	0000                	.insn	2, 0x
    3b60:	e300                	.insn	2, 0xe300
    3b62:	e3e3e3e3          	bltu	t2,t5,3988 <BHorse+0x270>
    3b66:	e3e3e3e3          	bltu	t2,t5,398c <BHorse+0x274>
    3b6a:	e3e3e3e3          	bltu	t2,t5,3990 <BHorse+0x278>
    3b6e:	e3e3e3e3          	bltu	t2,t5,3994 <BHorse+0x27c>
    3b72:	e3e3e3e3          	bltu	t2,t5,3998 <BHorse+0x280>
    3b76:	00e3e3e3          	bltu	t2,a4,437c <WQueen+0x1d8>
    3b7a:	0000                	.insn	2, 0x
    3b7c:	0000                	.insn	2, 0x
    3b7e:	0000                	.insn	2, 0x
    3b80:	e3e3e3e3          	bltu	t2,t5,39a6 <BHorse+0x28e>
    3b84:	e3e3e3e3          	bltu	t2,t5,39aa <BHorse+0x292>
    3b88:	e3e3e3e3          	bltu	t2,t5,39ae <BHorse+0x296>
    3b8c:	e3e3e3e3          	bltu	t2,t5,39b2 <BHorse+0x29a>
    3b90:	e3e3e3e3          	bltu	t2,t5,39b6 <BHorse+0x29e>
    3b94:	00e3e3e3          	bltu	t2,a4,439a <WQueen+0x1f6>
    3b98:	0000                	.insn	2, 0x
    3b9a:	0000                	.insn	2, 0x
    3b9c:	0000                	.insn	2, 0x
    3b9e:	e3e3e3e3          	bltu	t2,t5,39c4 <BHorse+0x2ac>
    3ba2:	e3e3e3e3          	bltu	t2,t5,39c8 <BHorse+0x2b0>
    3ba6:	e3e3e3e3          	bltu	t2,t5,39cc <BHorse+0x2b4>
    3baa:	e3e3e3e3          	bltu	t2,t5,39d0 <BHorse+0x2b8>
    3bae:	e3e3e3e3          	bltu	t2,t5,39d4 <BHorse+0x2bc>
    3bb2:	00e3e3e3          	bltu	t2,a4,43b8 <WQueen+0x214>
    3bb6:	0000                	.insn	2, 0x
    3bb8:	0000                	.insn	2, 0x
    3bba:	0000                	.insn	2, 0x
    3bbc:	e3e3e3e3          	bltu	t2,t5,39e2 <BHorse+0x2ca>
    3bc0:	e3e3e3e3          	bltu	t2,t5,39e6 <BHorse+0x2ce>
    3bc4:	e3e3e3e3          	bltu	t2,t5,39ea <BHorse+0x2d2>
    3bc8:	e3e3e3e3          	bltu	t2,t5,39ee <BHorse+0x2d6>
    3bcc:	e3e3e3e3          	bltu	t2,t5,39f2 <BHorse+0x2da>
    3bd0:	e3e3e3e3          	bltu	t2,t5,39f6 <BHorse+0x2de>
    3bd4:	0000                	.insn	2, 0x
    3bd6:	0000                	.insn	2, 0x
    3bd8:	e300                	.insn	2, 0xe300
    3bda:	e3e3e3e3          	bltu	t2,t5,3a00 <BHorse+0x2e8>
    3bde:	e3e3e3e3          	bltu	t2,t5,3a04 <BHorse+0x2ec>
    3be2:	e3e3e3e3          	bltu	t2,t5,3a08 <BHorse+0x2f0>
    3be6:	e3e3e3e3          	bltu	t2,t5,3a0c <BHorse+0x2f4>
    3bea:	e3e3e3e3          	bltu	t2,t5,3a10 <BHorse+0x2f8>
    3bee:	00e3e3e3          	bltu	t2,a4,43f4 <WQueen+0x250>
    3bf2:	0000                	.insn	2, 0x
    3bf4:	0000                	.insn	2, 0x
    3bf6:	0000                	.insn	2, 0x
    3bf8:	e3e3e3e3          	bltu	t2,t5,3a1e <BHorse+0x306>
    3bfc:	e3e3e3e3          	bltu	t2,t5,3a22 <BHorse+0x30a>
    3c00:	e3e3e3e3          	bltu	t2,t5,3a26 <BHorse+0x30e>
    3c04:	e3e3e3e3          	bltu	t2,t5,3a2a <BHorse+0x312>
    3c08:	e3e3e3e3          	bltu	t2,t5,3a2e <BHorse+0x316>
    3c0c:	0000e3e3          	bltu	ra,zero,4412 <WQueen+0x26e>
    3c10:	0000                	.insn	2, 0x
    3c12:	0000                	.insn	2, 0x
    3c14:	0000                	.insn	2, 0x
    3c16:	e300                	.insn	2, 0xe300
    3c18:	e3e3e3e3          	bltu	t2,t5,3a3e <BHorse+0x326>
    3c1c:	e3e3e3e3          	bltu	t2,t5,3a42 <BHorse+0x32a>
    3c20:	e3e3e3e3          	bltu	t2,t5,3a46 <BHorse+0x32e>
    3c24:	e3e3e3e3          	bltu	t2,t5,3a4a <BHorse+0x332>
    3c28:	e3e3e3e3          	bltu	t2,t5,3a4e <BHorse+0x336>
	...
    3c34:	e300                	.insn	2, 0xe300
    3c36:	e3e3e3e3          	bltu	t2,t5,3a5c <BHorse+0x344>
    3c3a:	e3e3e3e3          	bltu	t2,t5,3a60 <BHorse+0x348>
    3c3e:	e3e3e3e3          	bltu	t2,t5,3a64 <BHorse+0x34c>
    3c42:	e3e3e3e3          	bltu	t2,t5,3a68 <BHorse+0x350>
    3c46:	e3e3e3e3          	bltu	t2,t5,3a6c <BHorse+0x354>
	...
    3c52:	e300                	.insn	2, 0xe300
    3c54:	e3e3e3e3          	bltu	t2,t5,3a7a <BHorse+0x362>
    3c58:	e3e3e3e3          	bltu	t2,t5,3a7e <BHorse+0x366>
    3c5c:	e3e3e3e3          	bltu	t2,t5,3a82 <BHorse+0x36a>
    3c60:	e3e3e3e3          	bltu	t2,t5,3a86 <BHorse+0x36e>
    3c64:	e3e3e3e3          	bltu	t2,t5,3a8a <BHorse+0x372>
	...
    3c70:	e300                	.insn	2, 0xe300
    3c72:	e3e3e3e3          	bltu	t2,t5,3a98 <BHorse+0x380>
    3c76:	e3e3e3e3          	bltu	t2,t5,3a9c <BSoldier>
    3c7a:	e3e3e3e3          	bltu	t2,t5,3aa0 <BSoldier+0x4>
    3c7e:	e3e3e3e3          	bltu	t2,t5,3aa4 <BSoldier+0x8>
    3c82:	e3e3e3e3          	bltu	t2,t5,3aa8 <BSoldier+0xc>
	...
    3c8e:	e300                	.insn	2, 0xe300
    3c90:	e3e3e3e3          	bltu	t2,t5,3ab6 <BSoldier+0x1a>
    3c94:	e3e3e3e3          	bltu	t2,t5,3aba <BSoldier+0x1e>
    3c98:	e3e3e3e3          	bltu	t2,t5,3abe <BSoldier+0x22>
    3c9c:	e3e3e3e3          	bltu	t2,t5,3ac2 <BSoldier+0x26>
    3ca0:	e3e3e3e3          	bltu	t2,t5,3ac6 <BSoldier+0x2a>
    3ca4:	000000e3          	beqz	zero,44a4 <WQueen+0x300>
    3ca8:	0000                	.insn	2, 0x
    3caa:	0000                	.insn	2, 0x
    3cac:	e3e3e3e3          	bltu	t2,t5,3ad2 <BSoldier+0x36>
    3cb0:	e3e3e3e3          	bltu	t2,t5,3ad6 <BSoldier+0x3a>
    3cb4:	e3e3e3e3          	bltu	t2,t5,3ada <BSoldier+0x3e>
    3cb8:	e3e3e3e3          	bltu	t2,t5,3ade <BSoldier+0x42>
    3cbc:	e3e3e3e3          	bltu	t2,t5,3ae2 <BSoldier+0x46>
    3cc0:	0000e3e3          	bltu	ra,zero,44c6 <WQueen+0x322>
    3cc4:	0000                	.insn	2, 0x
    3cc6:	0000                	.insn	2, 0x
    3cc8:	0000                	.insn	2, 0x
    3cca:	e300                	.insn	2, 0xe300
    3ccc:	e3e3e3e3          	bltu	t2,t5,3af2 <BSoldier+0x56>
    3cd0:	e3e3e3e3          	bltu	t2,t5,3af6 <BSoldier+0x5a>
    3cd4:	e3e3e3e3          	bltu	t2,t5,3afa <BSoldier+0x5e>
    3cd8:	e3e3e3e3          	bltu	t2,t5,3afe <BSoldier+0x62>
    3cdc:	00e3e3e3          	bltu	t2,a4,44e2 <WQueen+0x33e>
	...
    3ce8:	0000                	.insn	2, 0x
    3cea:	e3e3e3e3          	bltu	t2,t5,3b10 <BSoldier+0x74>
    3cee:	e3e3e3e3          	bltu	t2,t5,3b14 <BSoldier+0x78>
    3cf2:	e3e3e3e3          	bltu	t2,t5,3b18 <BSoldier+0x7c>
    3cf6:	e3e3e3e3          	bltu	t2,t5,3b1c <BSoldier+0x80>
    3cfa:	0000e3e3          	bltu	ra,zero,4500 <WQueen+0x35c>
	...
    3d06:	0000                	.insn	2, 0x
    3d08:	e300                	.insn	2, 0xe300
    3d0a:	e3e3e3e3          	bltu	t2,t5,3b30 <BSoldier+0x94>
    3d0e:	e3e3e3e3          	bltu	t2,t5,3b34 <BSoldier+0x98>
    3d12:	e3e3e3e3          	bltu	t2,t5,3b38 <BSoldier+0x9c>
    3d16:	e3e3e3e3          	bltu	t2,t5,3b3c <BSoldier+0xa0>
	...
    3d26:	e300                	.insn	2, 0xe300
    3d28:	e3e3e3e3          	bltu	t2,t5,3b4e <BSoldier+0xb2>
    3d2c:	e3e3e3e3          	bltu	t2,t5,3b52 <BSoldier+0xb6>
    3d30:	e3e3e3e3          	bltu	t2,t5,3b56 <BSoldier+0xba>
    3d34:	00e3e3e3          	bltu	t2,a4,453a <WCastle+0x12>
	...
    3d44:	0000                	.insn	2, 0x
    3d46:	e3e3e3e3          	bltu	t2,t5,3b6c <BSoldier+0xd0>
    3d4a:	e3e3e3e3          	bltu	t2,t5,3b70 <BSoldier+0xd4>
    3d4e:	e3e3e3e3          	bltu	t2,t5,3b74 <BSoldier+0xd8>
    3d52:	00e3e3e3          	bltu	t2,a4,4558 <WCastle+0x30>
	...
    3d62:	0000                	.insn	2, 0x
    3d64:	e3e3e3e3          	bltu	t2,t5,3b8a <BSoldier+0xee>
    3d68:	e3e3e3e3          	bltu	t2,t5,3b8e <BSoldier+0xf2>
    3d6c:	e3e3e3e3          	bltu	t2,t5,3b92 <BSoldier+0xf6>
    3d70:	00e3e3e3          	bltu	t2,a4,4576 <WCastle+0x4e>
	...
    3d80:	0000                	.insn	2, 0x
    3d82:	e3e3e3e3          	bltu	t2,t5,3ba8 <BSoldier+0x10c>
    3d86:	e3e3e3e3          	bltu	t2,t5,3bac <BSoldier+0x110>
    3d8a:	e3e3e3e3          	bltu	t2,t5,3bb0 <BSoldier+0x114>
    3d8e:	00e3e3e3          	bltu	t2,a4,4594 <WCastle+0x6c>
	...
    3d9e:	0000                	.insn	2, 0x
    3da0:	e3e3e3e3          	bltu	t2,t5,3bc6 <BSoldier+0x12a>
    3da4:	e3e3e3e3          	bltu	t2,t5,3bca <BSoldier+0x12e>
    3da8:	e3e3e3e3          	bltu	t2,t5,3bce <BSoldier+0x132>
    3dac:	00e3e3e3          	bltu	t2,a4,45b2 <WCastle+0x8a>
	...
    3dbc:	0000                	.insn	2, 0x
    3dbe:	e3e3e3e3          	bltu	t2,t5,3be4 <BSoldier+0x148>
    3dc2:	e3e3e3e3          	bltu	t2,t5,3be8 <BSoldier+0x14c>
    3dc6:	e3e3e3e3          	bltu	t2,t5,3bec <BSoldier+0x150>
    3dca:	e3e3e3e3          	bltu	t2,t5,3bf0 <BSoldier+0x154>
    3dce:	e3e3e3e3          	bltu	t2,t5,3bf4 <BSoldier+0x158>
    3dd2:	e3e3e3e3          	bltu	t2,t5,3bf8 <BSoldier+0x15c>
    3dd6:	e3e3e3e3          	bltu	t2,t5,3bfc <BSoldier+0x160>
    3dda:	e3e3e3e3          	bltu	t2,t5,3c00 <BSoldier+0x164>
    3dde:	e3e3e3e3          	bltu	t2,t5,3c04 <BSoldier+0x168>
    3de2:	e3e3e3e3          	bltu	t2,t5,3c08 <BSoldier+0x16c>
    3de6:	e3e3e3e3          	bltu	t2,t5,3c0c <BSoldier+0x170>
    3dea:	e3e3e3e3          	bltu	t2,t5,3c10 <BSoldier+0x174>
    3dee:	e3e3e3e3          	bltu	t2,t5,3c14 <BSoldier+0x178>
    3df2:	e3e3e3e3          	bltu	t2,t5,3c18 <BSoldier+0x17c>
    3df6:	e3e3e3e3          	bltu	t2,t5,3c1c <BSoldier+0x180>
    3dfa:	e3e3e3e3          	bltu	t2,t5,3c20 <BSoldier+0x184>
    3dfe:	e3e3e3e3          	bltu	t2,t5,3c24 <BSoldier+0x188>
    3e02:	e3e3e3e3          	bltu	t2,t5,3c28 <BSoldier+0x18c>
    3e06:	e3e3e3e3          	bltu	t2,t5,3c2c <BSoldier+0x190>
    3e0a:	e3e3e3e3          	bltu	t2,t5,3c30 <BSoldier+0x194>
    3e0e:	e3e3e3e3          	bltu	t2,t5,3c34 <BSoldier+0x198>
    3e12:	e3e3e3e3          	bltu	t2,t5,3c38 <BSoldier+0x19c>
    3e16:	e3e3e3e3          	bltu	t2,t5,3c3c <BSoldier+0x1a0>
    3e1a:	e3e3e3e3          	bltu	t2,t5,3c40 <BSoldier+0x1a4>
    3e1e:	          	bltu	t2,t5,3c44 <BSoldier+0x1a8>

00003e20 <WKing>:
    3e20:	e3e3e3e3          	bltu	t2,t5,3c46 <BSoldier+0x1aa>
    3e24:	e3e3e3e3          	bltu	t2,t5,3c4a <BSoldier+0x1ae>
    3e28:	e3e3e3e3          	bltu	t2,t5,3c4e <BSoldier+0x1b2>
    3e2c:	e3e3e3e3          	bltu	t2,t5,3c52 <BSoldier+0x1b6>
    3e30:	e3e3e3e3          	bltu	t2,t5,3c56 <BSoldier+0x1ba>
    3e34:	e3e3e3e3          	bltu	t2,t5,3c5a <BSoldier+0x1be>
    3e38:	e3e3e3e3          	bltu	t2,t5,3c5e <BSoldier+0x1c2>
    3e3c:	e3e3e3e3          	bltu	t2,t5,3c62 <BSoldier+0x1c6>
    3e40:	e3e3e3e3          	bltu	t2,t5,3c66 <BSoldier+0x1ca>
    3e44:	e3e3e3e3          	bltu	t2,t5,3c6a <BSoldier+0x1ce>
    3e48:	e3e3e3e3          	bltu	t2,t5,3c6e <BSoldier+0x1d2>
    3e4c:	e3e3e3e3          	bltu	t2,t5,3c72 <BSoldier+0x1d6>
    3e50:	e3e3e3e3          	bltu	t2,t5,3c76 <BSoldier+0x1da>
    3e54:	e3e3e3e3          	bltu	t2,t5,3c7a <BSoldier+0x1de>
    3e58:	e3e3e3e3          	bltu	t2,t5,3c7e <BSoldier+0x1e2>
    3e5c:	e3e3e3e3          	bltu	t2,t5,3c82 <BSoldier+0x1e6>
    3e60:	e3e3e3e3          	bltu	t2,t5,3c86 <BSoldier+0x1ea>
    3e64:	e3e3e3e3          	bltu	t2,t5,3c8a <BSoldier+0x1ee>
    3e68:	e3e3e3e3          	bltu	t2,t5,3c8e <BSoldier+0x1f2>
    3e6c:	e3e3e3e3          	bltu	t2,t5,3c92 <BSoldier+0x1f6>
    3e70:	e3e3e3e3          	bltu	t2,t5,3c96 <BSoldier+0x1fa>
    3e74:	e3e3e3e3          	bltu	t2,t5,3c9a <BSoldier+0x1fe>
    3e78:	e3e3e3e3          	bltu	t2,t5,3c9e <BSoldier+0x202>
    3e7c:	e3e3e3e3          	bltu	t2,t5,3ca2 <BSoldier+0x206>
    3e80:	e3e3e3e3          	bltu	t2,t5,3ca6 <BSoldier+0x20a>
    3e84:	e3e3e3e3          	bltu	t2,t5,3caa <BSoldier+0x20e>
    3e88:	0000                	.insn	2, 0x
    3e8a:	e3e3e3e3          	bltu	t2,t5,3cb0 <BSoldier+0x214>
    3e8e:	e3e3e3e3          	bltu	t2,t5,3cb4 <BSoldier+0x218>
    3e92:	e3e3e3e3          	bltu	t2,t5,3cb8 <BSoldier+0x21c>
    3e96:	e3e3e3e3          	bltu	t2,t5,3cbc <BSoldier+0x220>
    3e9a:	e3e3e3e3          	bltu	t2,t5,3cc0 <BSoldier+0x224>
    3e9e:	e3e3e3e3          	bltu	t2,t5,3cc4 <BSoldier+0x228>
    3ea2:	00e3e3e3          	bltu	t2,a4,46a8 <WCastle+0x180>
    3ea6:	0000                	.insn	2, 0x
    3ea8:	e300                	.insn	2, 0xe300
    3eaa:	e3e3e3e3          	bltu	t2,t5,3cd0 <BSoldier+0x234>
    3eae:	e3e3e3e3          	bltu	t2,t5,3cd4 <BSoldier+0x238>
    3eb2:	e3e3e3e3          	bltu	t2,t5,3cd8 <BSoldier+0x23c>
    3eb6:	e3e3e3e3          	bltu	t2,t5,3cdc <BSoldier+0x240>
    3eba:	e3e3e3e3          	bltu	t2,t5,3ce0 <BSoldier+0x244>
    3ebe:	e3e3e3e3          	bltu	t2,t5,3ce4 <BSoldier+0x248>
    3ec2:	000000e3          	beqz	zero,46c2 <WCastle+0x19a>
    3ec6:	e300                	.insn	2, 0xe300
    3ec8:	e3e3e3e3          	bltu	t2,t5,3cee <BSoldier+0x252>
    3ecc:	e3e3e3e3          	bltu	t2,t5,3cf2 <BSoldier+0x256>
    3ed0:	e3e3e3e3          	bltu	t2,t5,3cf6 <BSoldier+0x25a>
    3ed4:	e3e3e3e3          	bltu	t2,t5,3cfa <BSoldier+0x25e>
    3ed8:	e3e3e3e3          	bltu	t2,t5,3cfe <BSoldier+0x262>
    3edc:	e3e3e3e3          	bltu	t2,t5,3d02 <BSoldier+0x266>
    3ee0:	0000e3e3          	bltu	ra,zero,46e6 <WCastle+0x1be>
    3ee4:	e3e3e3e3          	bltu	t2,t5,3d0a <BSoldier+0x26e>
    3ee8:	e3e3e3e3          	bltu	t2,t5,3d0e <BSoldier+0x272>
    3eec:	e3e3e3e3          	bltu	t2,t5,3d12 <BSoldier+0x276>
    3ef0:	e3e3e3e3          	bltu	t2,t5,3d16 <BSoldier+0x27a>
    3ef4:	e3e3e3e3          	bltu	t2,t5,3d1a <BSoldier+0x27e>
    3ef8:	e3e3e3e3          	bltu	t2,t5,3d1e <BSoldier+0x282>
    3efc:	e3e3e3e3          	bltu	t2,t5,3d22 <BSoldier+0x286>
    3f00:	0000                	.insn	2, 0x
    3f02:	e3e3e3e3          	bltu	t2,t5,3d28 <BSoldier+0x28c>
    3f06:	e3e3e3e3          	bltu	t2,t5,3d2c <BSoldier+0x290>
    3f0a:	e3e3e3e3          	bltu	t2,t5,3d30 <BSoldier+0x294>
    3f0e:	e3e3e3e3          	bltu	t2,t5,3d34 <BSoldier+0x298>
    3f12:	e3e3e3e3          	bltu	t2,t5,3d38 <BSoldier+0x29c>
    3f16:	e3e3e3e3          	bltu	t2,t5,3d3c <BSoldier+0x2a0>
    3f1a:	00e3e3e3          	bltu	t2,a4,4720 <WCastle+0x1f8>
    3f1e:	ffff                	.insn	2, 0xffff
    3f20:	e300                	.insn	2, 0xe300
    3f22:	e3e3e3e3          	bltu	t2,t5,3d48 <BSoldier+0x2ac>
    3f26:	e3e3e3e3          	bltu	t2,t5,3d4c <BSoldier+0x2b0>
    3f2a:	e3e3e3e3          	bltu	t2,t5,3d50 <BSoldier+0x2b4>
    3f2e:	e3e3e3e3          	bltu	t2,t5,3d54 <BSoldier+0x2b8>
    3f32:	e3e3e3e3          	bltu	t2,t5,3d58 <BSoldier+0x2bc>
    3f36:	e3e3e3e3          	bltu	t2,t5,3d5c <BSoldier+0x2c0>
    3f3a:	ff00                	.insn	2, 0xff00
    3f3c:	ffff                	.insn	2, 0xffff
    3f3e:	00ff e3e3 e3e3 e3e3 	.insn	10, 0xe3e3e3e3e3e3e3e300ff
    3f46:	e3e3 
    3f48:	e3e3e3e3          	bltu	t2,t5,3d6e <BSoldier+0x2d2>
    3f4c:	e3e3e3e3          	bltu	t2,t5,3d72 <BSoldier+0x2d6>
    3f50:	0000e3e3          	bltu	ra,zero,4756 <WCastle+0x22e>
    3f54:	0000                	.insn	2, 0x
    3f56:	e300                	.insn	2, 0xe300
    3f58:	ff00                	.insn	2, 0xff00
    3f5a:	ffff                	.insn	2, 0xffff
    3f5c:	00ff 00e3 0000 0000 	.insn	10, 0xe3e30000000000e300ff
    3f64:	e3e3 
    3f66:	e3e3e3e3          	bltu	t2,t5,3d8c <BSoldier+0x2f0>
    3f6a:	e3e3e3e3          	bltu	t2,t5,3d90 <BSoldier+0x2f4>
    3f6e:	ffff00e3          	beq	t5,t6,3f4e <WKing+0x12e>
    3f72:	ffff                	.insn	2, 0xffff
    3f74:	00ff ff00 ffff 00ff 	.insn	10, 0xff0000ffffffff0000ff
    3f7c:	ff00 
    3f7e:	ffff                	.insn	2, 0xffff
    3f80:	ffff                	.insn	2, 0xffff
    3f82:	e300                	.insn	2, 0xe300
    3f84:	e3e3e3e3          	bltu	t2,t5,3daa <BSoldier+0x30e>
    3f88:	e3e3e3e3          	bltu	t2,t5,3dae <BSoldier+0x312>
    3f8c:	ff00                	.insn	2, 0xff00
    3f8e:	ffff                	.insn	2, 0xffff
    3f90:	ffff                	.insn	2, 0xffff
    3f92:	ffff                	.insn	2, 0xffff
    3f94:	ff00                	.insn	2, 0xff00
    3f96:	ffff                	.insn	2, 0xffff
    3f98:	00ff ffff ffff ffff 	.insn	10, 0x00ffffffffffffff00ff
    3fa0:	00ff 
    3fa2:	e3e3e3e3          	bltu	t2,t5,3dc8 <BSoldier+0x32c>
    3fa6:	00e3e3e3          	bltu	t2,a4,47ac <WCastle+0x284>
    3faa:	ffff                	.insn	2, 0xffff
    3fac:	ffff                	.insn	2, 0xffff
    3fae:	ffff                	.insn	2, 0xffff
    3fb0:	ffff                	.insn	2, 0xffff
    3fb2:	00ff ffff ff00 ffff 	.insn	10, 0xffffffffff00ffff00ff
    3fba:	ffff 
    3fbc:	ffff                	.insn	2, 0xffff
    3fbe:	ffff                	.insn	2, 0xffff
    3fc0:	e300                	.insn	2, 0xe300
    3fc2:	e3e3e3e3          	bltu	t2,t5,3de8 <BSoldier+0x34c>
    3fc6:	ffff00e3          	beq	t5,t6,3fa6 <WKing+0x186>
    3fca:	ffff                	.insn	2, 0xffff
    3fcc:	ffff                	.insn	2, 0xffff
    3fce:	ffff                	.insn	2, 0xffff
    3fd0:	ffff                	.insn	2, 0xffff
    3fd2:	0000                	.insn	2, 0x
    3fd4:	ffff                	.insn	2, 0xffff
    3fd6:	ffff                	.insn	2, 0xffff
    3fd8:	ffff                	.insn	2, 0xffff
    3fda:	ffff                	.insn	2, 0xffff
    3fdc:	ffff                	.insn	2, 0xffff
    3fde:	e300                	.insn	2, 0xe300
    3fe0:	e3e3e3e3          	bltu	t2,t5,3e06 <BSoldier+0x36a>
    3fe4:	ffff00e3          	beq	t5,t6,3fc4 <WKing+0x1a4>
    3fe8:	ffff                	.insn	2, 0xffff
    3fea:	ffff                	.insn	2, 0xffff
    3fec:	ffff                	.insn	2, 0xffff
    3fee:	ffff                	.insn	2, 0xffff
    3ff0:	0000                	.insn	2, 0x
    3ff2:	ffff                	.insn	2, 0xffff
    3ff4:	ffff                	.insn	2, 0xffff
    3ff6:	ffff                	.insn	2, 0xffff
    3ff8:	ffff                	.insn	2, 0xffff
    3ffa:	ffff                	.insn	2, 0xffff
    3ffc:	e300                	.insn	2, 0xe300
    3ffe:	e3e3e3e3          	bltu	t2,t5,3e24 <WKing+0x4>
    4002:	ff0000e3          	beq	zero,a6,3fe2 <WKing+0x1c2>
    4006:	ffff                	.insn	2, 0xffff
    4008:	ffff                	.insn	2, 0xffff
    400a:	ffff                	.insn	2, 0xffff
    400c:	ffff                	.insn	2, 0xffff
    400e:	0000                	.insn	2, 0x
    4010:	ffff                	.insn	2, 0xffff
    4012:	ffff                	.insn	2, 0xffff
    4014:	ffff                	.insn	2, 0xffff
    4016:	ffff                	.insn	2, 0xffff
    4018:	00ff e300 e3e3 e3e3 	.insn	10, 0xe3e3e3e3e3e3e30000ff
    4020:	e3e3 
    4022:	0000                	.insn	2, 0x
    4024:	ffff                	.insn	2, 0xffff
    4026:	ffff                	.insn	2, 0xffff
	...
    4030:	0000                	.insn	2, 0x
    4032:	ffff                	.insn	2, 0xffff
    4034:	ffff                	.insn	2, 0xffff
    4036:	0000                	.insn	2, 0x
    4038:	e3e3e3e3          	bltu	t2,t5,3e5e <WKing+0x3e>
    403c:	e3e3e3e3          	bltu	t2,t5,3e62 <WKing+0x42>
    4040:	db0000e3          	beq	zero,a6,3de0 <BSoldier+0x344>
    4044:	0000                	.insn	2, 0x
    4046:	ffff                	.insn	2, 0xffff
    4048:	ffff                	.insn	2, 0xffff
    404a:	ffff                	.insn	2, 0xffff
    404c:	ffff                	.insn	2, 0xffff
    404e:	ffff                	.insn	2, 0xffff
    4050:	0000                	.insn	2, 0x
    4052:	00ff e300 e3e3 e3e3 	.insn	10, 0xe3e3e3e3e3e3e30000ff
    405a:	e3e3 
    405c:	e3e3e3e3          	bltu	t2,t5,3e82 <WKing+0x62>
    4060:	0000                	.insn	2, 0x
    4062:	ffff                	.insn	2, 0xffff
    4064:	ffff                	.insn	2, 0xffff
    4066:	ffff                	.insn	2, 0xffff
    4068:	ffff                	.insn	2, 0xffff
    406a:	ffff                	.insn	2, 0xffff
    406c:	ffff                	.insn	2, 0xffff
    406e:	ffff                	.insn	2, 0xffff
    4070:	0000                	.insn	2, 0x
    4072:	e3e3e3e3          	bltu	t2,t5,3e98 <WKing+0x78>
    4076:	e3e3e3e3          	bltu	t2,t5,3e9c <WKing+0x7c>
    407a:	e3e3e3e3          	bltu	t2,t5,3ea0 <WKing+0x80>
    407e:	ffff00e3          	beq	t5,t6,405e <WKing+0x23e>
    4082:	ffff                	.insn	2, 0xffff
    4084:	0000                	.insn	2, 0x
    4086:	0000                	.insn	2, 0x
    4088:	0000                	.insn	2, 0x
    408a:	ffff                	.insn	2, 0xffff
    408c:	ffff                	.insn	2, 0xffff
    408e:	e300                	.insn	2, 0xe300
    4090:	e3e3e3e3          	bltu	t2,t5,3eb6 <WKing+0x96>
    4094:	e3e3e3e3          	bltu	t2,t5,3eba <WKing+0x9a>
    4098:	e3e3e3e3          	bltu	t2,t5,3ebe <WKing+0x9e>
    409c:	000000e3          	beqz	zero,489c <WCastle+0x374>
    40a0:	0000                	.insn	2, 0x
    40a2:	ffff                	.insn	2, 0xffff
    40a4:	ffff                	.insn	2, 0xffff
    40a6:	ffff                	.insn	2, 0xffff
    40a8:	0000                	.insn	2, 0x
    40aa:	0000                	.insn	2, 0x
    40ac:	e300                	.insn	2, 0xe300
    40ae:	e3e3e3e3          	bltu	t2,t5,3ed4 <WKing+0xb4>
    40b2:	e3e3e3e3          	bltu	t2,t5,3ed8 <WKing+0xb8>
    40b6:	e3e3e3e3          	bltu	t2,t5,3edc <WKing+0xbc>
    40ba:	ffff00e3          	beq	t5,t6,409a <WKing+0x27a>
    40be:	ffff                	.insn	2, 0xffff
    40c0:	00ff 0000 ff00 ffff 	.insn	10, 0xffffffffff00000000ff
    40c8:	ffff 
    40ca:	e300                	.insn	2, 0xe300
    40cc:	e3e3e3e3          	bltu	t2,t5,3ef2 <WKing+0xd2>
    40d0:	e3e3e3e3          	bltu	t2,t5,3ef6 <WKing+0xd6>
    40d4:	e3e3e3e3          	bltu	t2,t5,3efa <WKing+0xda>
    40d8:	00ff00e3          	beq	t5,a5,48d8 <WBishop+0x2c>
    40dc:	0000                	.insn	2, 0x
    40de:	ff00                	.insn	2, 0xff00
    40e0:	ffff                	.insn	2, 0xffff
    40e2:	00ff 0000 ff00 e300 	.insn	10, 0xe3e3e300ff00000000ff
    40ea:	e3e3 
    40ec:	e3e3e3e3          	bltu	t2,t5,3f12 <WKing+0xf2>
    40f0:	e3e3e3e3          	bltu	t2,t5,3f16 <WKing+0xf6>
    40f4:	00e3e3e3          	bltu	t2,a4,48fa <WBishop+0x4e>
    40f8:	ff00                	.insn	2, 0xff00
    40fa:	ffff                	.insn	2, 0xffff
    40fc:	ffff                	.insn	2, 0xffff
    40fe:	ffff                	.insn	2, 0xffff
    4100:	ffff                	.insn	2, 0xffff
    4102:	ffff                	.insn	2, 0xffff
    4104:	00ff e300 e3e3 e3e3 	.insn	10, 0xe3e3e3e3e3e3e30000ff
    410c:	e3e3 
    410e:	e3e3e3e3          	bltu	t2,t5,3f34 <WKing+0x114>
    4112:	e3e3e3e3          	bltu	t2,t5,3f38 <WKing+0x118>
    4116:	0000                	.insn	2, 0x
    4118:	ff00                	.insn	2, 0xff00
    411a:	ffff                	.insn	2, 0xffff
    411c:	ffff                	.insn	2, 0xffff
    411e:	ffff                	.insn	2, 0xffff
    4120:	00ff 0000 e3e3 e3e3 	.insn	10, 0xe3e3e3e3e3e3000000ff
    4128:	e3e3 
    412a:	e3e3e3e3          	bltu	t2,t5,3f50 <WKing+0x130>
    412e:	e3e3e3e3          	bltu	t2,t5,3f54 <WKing+0x134>
    4132:	e3e3e3e3          	bltu	t2,t5,3f58 <WKing+0x138>
	...
    413e:	0000                	.insn	2, 0x
    4140:	e3e3e3e3          	bltu	t2,t5,3f66 <WKing+0x146>
    4144:	e3e3e3e3          	bltu	t2,t5,3f6a <WKing+0x14a>
    4148:	e3e3e3e3          	bltu	t2,t5,3f6e <WKing+0x14e>
    414c:	e3e3e3e3          	bltu	t2,t5,3f72 <WKing+0x152>
    4150:	e3e3e3e3          	bltu	t2,t5,3f76 <WKing+0x156>
    4154:	e3e3e3e3          	bltu	t2,t5,3f7a <WKing+0x15a>
    4158:	e3e3e3e3          	bltu	t2,t5,3f7e <WKing+0x15e>
    415c:	e3e3e3e3          	bltu	t2,t5,3f82 <WKing+0x162>
    4160:	e3e3e3e3          	bltu	t2,t5,3f86 <WKing+0x166>
    4164:	e3e3e3e3          	bltu	t2,t5,3f8a <WKing+0x16a>
    4168:	e3e3e3e3          	bltu	t2,t5,3f8e <WKing+0x16e>
    416c:	e3e3e3e3          	bltu	t2,t5,3f92 <WKing+0x172>
    4170:	e3e3e3e3          	bltu	t2,t5,3f96 <WKing+0x176>
    4174:	e3e3e3e3          	bltu	t2,t5,3f9a <WKing+0x17a>
    4178:	e3e3e3e3          	bltu	t2,t5,3f9e <WKing+0x17e>
    417c:	e3e3e3e3          	bltu	t2,t5,3fa2 <WKing+0x182>
    4180:	e3e3e3e3          	bltu	t2,t5,3fa6 <WKing+0x186>
    4184:	e3e3e3e3          	bltu	t2,t5,3faa <WKing+0x18a>
    4188:	e3e3e3e3          	bltu	t2,t5,3fae <WKing+0x18e>
    418c:	e3e3e3e3          	bltu	t2,t5,3fb2 <WKing+0x192>
    4190:	e3e3e3e3          	bltu	t2,t5,3fb6 <WKing+0x196>
    4194:	e3e3e3e3          	bltu	t2,t5,3fba <WKing+0x19a>
    4198:	e3e3e3e3          	bltu	t2,t5,3fbe <WKing+0x19e>
    419c:	e3e3e3e3          	bltu	t2,t5,3fc2 <WKing+0x1a2>
    41a0:	e3e3e3e3          	bltu	t2,t5,3fc6 <WKing+0x1a6>

000041a4 <WQueen>:
    41a4:	e3e3e3e3          	bltu	t2,t5,3fca <WKing+0x1aa>
    41a8:	e3e3e3e3          	bltu	t2,t5,3fce <WKing+0x1ae>
    41ac:	e3e3e3e3          	bltu	t2,t5,3fd2 <WKing+0x1b2>
    41b0:	e3e3e3e3          	bltu	t2,t5,3fd6 <WKing+0x1b6>
    41b4:	e3e3e3e3          	bltu	t2,t5,3fda <WKing+0x1ba>
    41b8:	e3e3e3e3          	bltu	t2,t5,3fde <WKing+0x1be>
    41bc:	e3e3e3e3          	bltu	t2,t5,3fe2 <WKing+0x1c2>
    41c0:	e3e3e3e3          	bltu	t2,t5,3fe6 <WKing+0x1c6>
    41c4:	e3e3e3e3          	bltu	t2,t5,3fea <WKing+0x1ca>
    41c8:	e3e3e3e3          	bltu	t2,t5,3fee <WKing+0x1ce>
    41cc:	e3e3e3e3          	bltu	t2,t5,3ff2 <WKing+0x1d2>
    41d0:	e3e3e3e3          	bltu	t2,t5,3ff6 <WKing+0x1d6>
    41d4:	e3e3e3e3          	bltu	t2,t5,3ffa <WKing+0x1da>
    41d8:	e3e3e3e3          	bltu	t2,t5,3ffe <WKing+0x1de>
    41dc:	e3e3e3e3          	bltu	t2,t5,4002 <WKing+0x1e2>
    41e0:	e3e3e3e3          	bltu	t2,t5,4006 <WKing+0x1e6>
    41e4:	e3e3e3e3          	bltu	t2,t5,400a <WKing+0x1ea>
    41e8:	e3e3e3e3          	bltu	t2,t5,400e <WKing+0x1ee>
    41ec:	e3e3e3e3          	bltu	t2,t5,4012 <WKing+0x1f2>
    41f0:	e3e3e3e3          	bltu	t2,t5,4016 <WKing+0x1f6>
    41f4:	e3e3e3e3          	bltu	t2,t5,401a <WKing+0x1fa>
    41f8:	e3e3e3e3          	bltu	t2,t5,401e <WKing+0x1fe>
    41fc:	e3e3e3e3          	bltu	t2,t5,4022 <WKing+0x202>
    4200:	e3e3e3e3          	bltu	t2,t5,4026 <WKing+0x206>
    4204:	e3e3e3e3          	bltu	t2,t5,402a <WKing+0x20a>
    4208:	e3e3e3e3          	bltu	t2,t5,402e <WKing+0x20e>
    420c:	0000                	.insn	2, 0x
    420e:	e3e3e3e3          	bltu	t2,t5,4034 <WKing+0x214>
    4212:	e3e3e3e3          	bltu	t2,t5,4038 <WKing+0x218>
    4216:	e3e3e3e3          	bltu	t2,t5,403c <WKing+0x21c>
    421a:	e3e3e3e3          	bltu	t2,t5,4040 <WKing+0x220>
    421e:	e3e3e3e3          	bltu	t2,t5,4044 <WKing+0x224>
    4222:	0000e3e3          	bltu	ra,zero,4a28 <WBishop+0x17c>
    4226:	00e3e3e3          	bltu	t2,a4,4a2c <WBishop+0x180>
    422a:	ffff                	.insn	2, 0xffff
    422c:	e300                	.insn	2, 0xe300
    422e:	0000e3e3          	bltu	ra,zero,4a34 <WBishop+0x188>
    4232:	e3e3e3e3          	bltu	t2,t5,4058 <WKing+0x238>
    4236:	e3e3e3e3          	bltu	t2,t5,405c <WKing+0x23c>
    423a:	e3e3e3e3          	bltu	t2,t5,4060 <WKing+0x240>
    423e:	00e3e3e3          	bltu	t2,a4,4a44 <WBishop+0x198>
    4242:	ffff                	.insn	2, 0xffff
    4244:	e300                	.insn	2, 0xe300
    4246:	ffff00e3          	beq	t5,t6,4226 <WQueen+0x82>
    424a:	e300                	.insn	2, 0xe300
    424c:	ffff00e3          	beq	t5,t6,422c <WQueen+0x88>
    4250:	e300                	.insn	2, 0xe300
    4252:	e3e3e3e3          	bltu	t2,t5,4078 <WKing+0x258>
    4256:	e3e3e3e3          	bltu	t2,t5,407c <WKing+0x25c>
    425a:	e30000e3          	beq	zero,a6,407a <WKing+0x25a>
    425e:	ffff00e3          	beq	t5,t6,423e <WQueen+0x9a>
    4262:	e300                	.insn	2, 0xe300
    4264:	0000e3e3          	bltu	ra,zero,4a6a <WBishop+0x1be>
    4268:	00e3e3e3          	bltu	t2,a4,4a6e <WBishop+0x1c2>
    426c:	ffff                	.insn	2, 0xffff
    426e:	e300                	.insn	2, 0xe300
    4270:	e30000e3          	beq	zero,a6,4090 <WKing+0x270>
    4274:	e3e3e3e3          	bltu	t2,t5,409a <WKing+0x27a>
    4278:	ff00                	.insn	2, 0xff00
    427a:	00ff e3e3 0000 e3e3 	.insn	10, 0xe3e3e3e30000e3e300ff
    4282:	e3e3 
    4284:	0000                	.insn	2, 0x
    4286:	e3e3e3e3          	bltu	t2,t5,40ac <WKing+0x28c>
    428a:	0000                	.insn	2, 0x
    428c:	ff00e3e3          	bltu	ra,a6,4272 <WQueen+0xce>
    4290:	00ff e3e3 e3e3 ff00 	.insn	10, 0x00ffff00e3e3e3e300ff
    4298:	00ff 
    429a:	0000e3e3          	bltu	ra,zero,4aa0 <WBishop+0x1f4>
    429e:	e300                	.insn	2, 0xe300
    42a0:	0000e3e3          	bltu	ra,zero,4aa6 <WBishop+0x1fa>
    42a4:	00e3e3e3          	bltu	t2,a4,4aaa <WBishop+0x1fe>
    42a8:	0000                	.insn	2, 0x
    42aa:	ff00e3e3          	bltu	ra,a6,4290 <WQueen+0xec>
    42ae:	00ff e3e3 e3e3 00e3 	.insn	10, 0x00e3e3e3e3e300ff
    42b6:	0000 
    42b8:	e300                	.insn	2, 0xe300
    42ba:	ff00                	.insn	2, 0xff00
    42bc:	e300                	.insn	2, 0xe300
    42be:	ffff00e3          	beq	t5,t6,429e <WQueen+0xfa>
    42c2:	e300                	.insn	2, 0xe300
    42c4:	00ff00e3          	beq	t5,a5,4ac4 <WBishop+0x218>
    42c8:	000000e3          	beqz	zero,4ac8 <WBishop+0x21c>
    42cc:	e300                	.insn	2, 0xe300
    42ce:	e3e3e3e3          	bltu	t2,t5,40f4 <WKing+0x2d4>
    42d2:	00e3e3e3          	bltu	t2,a4,4ad8 <WBishop+0x22c>
    42d6:	e300                	.insn	2, 0xe300
    42d8:	ff00                	.insn	2, 0xff00
    42da:	00ff 00e3 ffff e300 	.insn	10, 0xff00e300ffff00e300ff
    42e2:	ff00 
    42e4:	00ff 00e3 e300 e3e3 	.insn	10, 0xe3e3e3e3e30000e300ff
    42ec:	e3e3 
    42ee:	e3e3e3e3          	bltu	t2,t5,4114 <WKing+0x2f4>
    42f2:	00ff00e3          	beq	t5,a5,4af2 <WBishop+0x246>
    42f6:	ff00                	.insn	2, 0xff00
    42f8:	00ff 0000 ffff 0000 	.insn	10, 0xff000000ffff000000ff
    4300:	ff00 
    4302:	00ff ff00 e300 e3e3 	.insn	10, 0xe3e3e3e3e300ff0000ff
    430a:	e3e3 
    430c:	e3e3e3e3          	bltu	t2,t5,4132 <WKing+0x312>
    4310:	ffff00e3          	beq	t5,t6,42f0 <WQueen+0x14c>
    4314:	ff00                	.insn	2, 0xff00
    4316:	ffff                	.insn	2, 0xffff
    4318:	ff00                	.insn	2, 0xff00
    431a:	ffff                	.insn	2, 0xffff
    431c:	00ff ffff 00ff ffff 	.insn	10, 0xe300ffff00ffffff00ff
    4324:	e300 
    4326:	e3e3e3e3          	bltu	t2,t5,414c <WKing+0x32c>
    432a:	e3e3e3e3          	bltu	t2,t5,4150 <WKing+0x330>
    432e:	ffff00e3          	beq	t5,t6,430e <WQueen+0x16a>
    4332:	ff00                	.insn	2, 0xff00
    4334:	ffff                	.insn	2, 0xffff
    4336:	ff00                	.insn	2, 0xff00
    4338:	ffff                	.insn	2, 0xffff
    433a:	00ff ffff 00ff ffff 	.insn	10, 0xe300ffff00ffffff00ff
    4342:	e300 
    4344:	e3e3e3e3          	bltu	t2,t5,416a <WKing+0x34a>
    4348:	e3e3e3e3          	bltu	t2,t5,416e <WKing+0x34e>
    434c:	000000e3          	beqz	zero,4b4c <WBishop+0x2a0>
	...
    4360:	e300                	.insn	2, 0xe300
    4362:	e3e3e3e3          	bltu	t2,t5,4188 <WKing+0x368>
    4366:	e3e3e3e3          	bltu	t2,t5,418c <WKing+0x36c>
    436a:	ffff00e3          	beq	t5,t6,434a <WQueen+0x1a6>
    436e:	ffff                	.insn	2, 0xffff
    4370:	ffff                	.insn	2, 0xffff
    4372:	ffff                	.insn	2, 0xffff
    4374:	ffff                	.insn	2, 0xffff
    4376:	ffff                	.insn	2, 0xffff
    4378:	ffff                	.insn	2, 0xffff
    437a:	ffff                	.insn	2, 0xffff
    437c:	ffff                	.insn	2, 0xffff
    437e:	e300                	.insn	2, 0xe300
    4380:	e3e3e3e3          	bltu	t2,t5,41a6 <WQueen+0x2>
    4384:	e3e3e3e3          	bltu	t2,t5,41aa <WQueen+0x6>
    4388:	ff0000e3          	beq	zero,a6,4368 <WQueen+0x1c4>
    438c:	ffff                	.insn	2, 0xffff
    438e:	ffff                	.insn	2, 0xffff
    4390:	ffff                	.insn	2, 0xffff
    4392:	ffff                	.insn	2, 0xffff
    4394:	ffff                	.insn	2, 0xffff
    4396:	ffff                	.insn	2, 0xffff
    4398:	ffff                	.insn	2, 0xffff
    439a:	00ff e300 e3e3 e3e3 	.insn	10, 0xe3e3e3e3e3e3e30000ff
    43a2:	e3e3 
    43a4:	e3e3e3e3          	bltu	t2,t5,41ca <WQueen+0x26>
    43a8:	0000                	.insn	2, 0x
    43aa:	ffff                	.insn	2, 0xffff
    43ac:	ffff                	.insn	2, 0xffff
    43ae:	ffff                	.insn	2, 0xffff
    43b0:	ffff                	.insn	2, 0xffff
    43b2:	ffff                	.insn	2, 0xffff
    43b4:	ffff                	.insn	2, 0xffff
    43b6:	ffff                	.insn	2, 0xffff
    43b8:	0000                	.insn	2, 0x
    43ba:	e3e3e3e3          	bltu	t2,t5,41e0 <WQueen+0x3c>
    43be:	e3e3e3e3          	bltu	t2,t5,41e4 <WQueen+0x40>
    43c2:	e3e3e3e3          	bltu	t2,t5,41e8 <WQueen+0x44>
    43c6:	000000e3          	beqz	zero,4bc6 <WBishop+0x31a>
	...
    43d6:	e300                	.insn	2, 0xe300
    43d8:	e3e3e3e3          	bltu	t2,t5,41fe <WQueen+0x5a>
    43dc:	e3e3e3e3          	bltu	t2,t5,4202 <WQueen+0x5e>
    43e0:	e3e3e3e3          	bltu	t2,t5,4206 <WQueen+0x62>
    43e4:	ff00e3e3          	bltu	ra,a6,43ca <WQueen+0x226>
    43e8:	ffff                	.insn	2, 0xffff
    43ea:	ffff                	.insn	2, 0xffff
    43ec:	ffff                	.insn	2, 0xffff
    43ee:	ffff                	.insn	2, 0xffff
    43f0:	ffff                	.insn	2, 0xffff
    43f2:	00ff e3e3 e3e3 e3e3 	.insn	10, 0xe3e3e3e3e3e3e3e300ff
    43fa:	e3e3 
    43fc:	e3e3e3e3          	bltu	t2,t5,4222 <WQueen+0x7e>
    4400:	e3e3e3e3          	bltu	t2,t5,4226 <WQueen+0x82>
    4404:	ff00                	.insn	2, 0xff00
    4406:	ffff                	.insn	2, 0xffff
    4408:	ffff                	.insn	2, 0xffff
    440a:	ffff                	.insn	2, 0xffff
    440c:	ffff                	.insn	2, 0xffff
    440e:	ffff                	.insn	2, 0xffff
    4410:	00ff e3e3 e3e3 e3e3 	.insn	10, 0xe3e3e3e3e3e3e3e300ff
    4418:	e3e3 
    441a:	e3e3e3e3          	bltu	t2,t5,4240 <WQueen+0x9c>
    441e:	e3e3e3e3          	bltu	t2,t5,4244 <WQueen+0xa0>
	...
    442e:	0000                	.insn	2, 0x
    4430:	e3e3e3e3          	bltu	t2,t5,4256 <WQueen+0xb2>
    4434:	e3e3e3e3          	bltu	t2,t5,425a <WQueen+0xb6>
    4438:	e3e3e3e3          	bltu	t2,t5,425e <WQueen+0xba>
    443c:	00e3e3e3          	bltu	t2,a4,4c42 <WHorse+0x12>
    4440:	ff00                	.insn	2, 0xff00
    4442:	ffff                	.insn	2, 0xffff
    4444:	ffff                	.insn	2, 0xffff
    4446:	ffff                	.insn	2, 0xffff
    4448:	ffff                	.insn	2, 0xffff
    444a:	ffff                	.insn	2, 0xffff
    444c:	00ff e300 e3e3 e3e3 	.insn	10, 0xe3e3e3e3e3e3e30000ff
    4454:	e3e3 
    4456:	e3e3e3e3          	bltu	t2,t5,427c <WQueen+0xd8>
    445a:	0000e3e3          	bltu	ra,zero,4c60 <WHorse+0x30>
    445e:	ffff                	.insn	2, 0xffff
    4460:	ffff                	.insn	2, 0xffff
    4462:	ffff                	.insn	2, 0xffff
    4464:	ffff                	.insn	2, 0xffff
    4466:	ffff                	.insn	2, 0xffff
    4468:	ffff                	.insn	2, 0xffff
    446a:	ffff                	.insn	2, 0xffff
    446c:	0000                	.insn	2, 0x
    446e:	e3e3e3e3          	bltu	t2,t5,4294 <WQueen+0xf0>
    4472:	e3e3e3e3          	bltu	t2,t5,4298 <WQueen+0xf4>
    4476:	e3e3e3e3          	bltu	t2,t5,429c <WQueen+0xf8>
    447a:	ff00                	.insn	2, 0xff00
    447c:	ffff                	.insn	2, 0xffff
    447e:	ffff                	.insn	2, 0xffff
    4480:	ffff                	.insn	2, 0xffff
    4482:	ffff                	.insn	2, 0xffff
    4484:	ffff                	.insn	2, 0xffff
    4486:	ffff                	.insn	2, 0xffff
    4488:	ffff                	.insn	2, 0xffff
    448a:	00ff e3e3 e3e3 e3e3 	.insn	10, 0xe3e3e3e3e3e3e3e300ff
    4492:	e3e3 
    4494:	e3e3e3e3          	bltu	t2,t5,42ba <WQueen+0x116>
	...
    44a8:	0000                	.insn	2, 0x
    44aa:	e3e3e3e3          	bltu	t2,t5,42d0 <WQueen+0x12c>
    44ae:	e3e3e3e3          	bltu	t2,t5,42d4 <WQueen+0x130>
    44b2:	e3e3e3e3          	bltu	t2,t5,42d8 <WQueen+0x134>
    44b6:	e3e3e3e3          	bltu	t2,t5,42dc <WQueen+0x138>
    44ba:	e3e3e3e3          	bltu	t2,t5,42e0 <WQueen+0x13c>
    44be:	e3e3e3e3          	bltu	t2,t5,42e4 <WQueen+0x140>
    44c2:	e3e3e3e3          	bltu	t2,t5,42e8 <WQueen+0x144>
    44c6:	e3e3e3e3          	bltu	t2,t5,42ec <WQueen+0x148>
    44ca:	e3e3e3e3          	bltu	t2,t5,42f0 <WQueen+0x14c>
    44ce:	e3e3e3e3          	bltu	t2,t5,42f4 <WQueen+0x150>
    44d2:	e3e3e3e3          	bltu	t2,t5,42f8 <WQueen+0x154>
    44d6:	e3e3e3e3          	bltu	t2,t5,42fc <WQueen+0x158>
    44da:	e3e3e3e3          	bltu	t2,t5,4300 <WQueen+0x15c>
    44de:	e3e3e3e3          	bltu	t2,t5,4304 <WQueen+0x160>
    44e2:	e3e3e3e3          	bltu	t2,t5,4308 <WQueen+0x164>
    44e6:	e3e3e3e3          	bltu	t2,t5,430c <WQueen+0x168>
    44ea:	e3e3e3e3          	bltu	t2,t5,4310 <WQueen+0x16c>
    44ee:	e3e3e3e3          	bltu	t2,t5,4314 <WQueen+0x170>
    44f2:	e3e3e3e3          	bltu	t2,t5,4318 <WQueen+0x174>
    44f6:	e3e3e3e3          	bltu	t2,t5,431c <WQueen+0x178>
    44fa:	e3e3e3e3          	bltu	t2,t5,4320 <WQueen+0x17c>
    44fe:	e3e3e3e3          	bltu	t2,t5,4324 <WQueen+0x180>
    4502:	e3e3e3e3          	bltu	t2,t5,4328 <WQueen+0x184>
    4506:	e3e3e3e3          	bltu	t2,t5,432c <WQueen+0x188>
    450a:	e3e3e3e3          	bltu	t2,t5,4330 <WQueen+0x18c>
    450e:	e3e3e3e3          	bltu	t2,t5,4334 <WQueen+0x190>
    4512:	e3e3e3e3          	bltu	t2,t5,4338 <WQueen+0x194>
    4516:	e3e3e3e3          	bltu	t2,t5,433c <WQueen+0x198>
    451a:	e3e3e3e3          	bltu	t2,t5,4340 <WQueen+0x19c>
    451e:	e3e3e3e3          	bltu	t2,t5,4344 <WQueen+0x1a0>
    4522:	e3e3e3e3          	bltu	t2,t5,4348 <WQueen+0x1a4>
    4526:	          	bltu	t2,t5,434c <WQueen+0x1a8>

00004528 <WCastle>:
    4528:	e3e3e3e3          	bltu	t2,t5,434e <WQueen+0x1aa>
    452c:	e3e3e3e3          	bltu	t2,t5,4352 <WQueen+0x1ae>
    4530:	e3e3e3e3          	bltu	t2,t5,4356 <WQueen+0x1b2>
    4534:	e3e3e3e3          	bltu	t2,t5,435a <WQueen+0x1b6>
    4538:	e3e3e3e3          	bltu	t2,t5,435e <WQueen+0x1ba>
    453c:	e3e3e3e3          	bltu	t2,t5,4362 <WQueen+0x1be>
    4540:	e3e3e3e3          	bltu	t2,t5,4366 <WQueen+0x1c2>
    4544:	e3e3e3e3          	bltu	t2,t5,436a <WQueen+0x1c6>
    4548:	e3e3e3e3          	bltu	t2,t5,436e <WQueen+0x1ca>
    454c:	e3e3e3e3          	bltu	t2,t5,4372 <WQueen+0x1ce>
    4550:	e3e3e3e3          	bltu	t2,t5,4376 <WQueen+0x1d2>
    4554:	e3e3e3e3          	bltu	t2,t5,437a <WQueen+0x1d6>
    4558:	e3e3e3e3          	bltu	t2,t5,437e <WQueen+0x1da>
    455c:	e3e3e3e3          	bltu	t2,t5,4382 <WQueen+0x1de>
    4560:	e3e3e3e3          	bltu	t2,t5,4386 <WQueen+0x1e2>
    4564:	e3e3e3e3          	bltu	t2,t5,438a <WQueen+0x1e6>
    4568:	e3e3e3e3          	bltu	t2,t5,438e <WQueen+0x1ea>
    456c:	e3e3e3e3          	bltu	t2,t5,4392 <WQueen+0x1ee>
    4570:	e3e3e3e3          	bltu	t2,t5,4396 <WQueen+0x1f2>
    4574:	e3e3e3e3          	bltu	t2,t5,439a <WQueen+0x1f6>
    4578:	e3e3e3e3          	bltu	t2,t5,439e <WQueen+0x1fa>
    457c:	e3e3e3e3          	bltu	t2,t5,43a2 <WQueen+0x1fe>
    4580:	e3e3e3e3          	bltu	t2,t5,43a6 <WQueen+0x202>
    4584:	e3e3e3e3          	bltu	t2,t5,43aa <WQueen+0x206>
    4588:	e3e3e3e3          	bltu	t2,t5,43ae <WQueen+0x20a>
    458c:	e3e3e3e3          	bltu	t2,t5,43b2 <WQueen+0x20e>
    4590:	e3e3e3e3          	bltu	t2,t5,43b6 <WQueen+0x212>
    4594:	e3e3e3e3          	bltu	t2,t5,43ba <WQueen+0x216>
    4598:	e3e3e3e3          	bltu	t2,t5,43be <WQueen+0x21a>
    459c:	e3e3e3e3          	bltu	t2,t5,43c2 <WQueen+0x21e>
    45a0:	e3e3e3e3          	bltu	t2,t5,43c6 <WQueen+0x222>
    45a4:	e3e3e3e3          	bltu	t2,t5,43ca <WQueen+0x226>
    45a8:	e3e3e3e3          	bltu	t2,t5,43ce <WQueen+0x22a>
    45ac:	e3e3e3e3          	bltu	t2,t5,43d2 <WQueen+0x22e>
    45b0:	e3e3e3e3          	bltu	t2,t5,43d6 <WQueen+0x232>
    45b4:	e3e3e3e3          	bltu	t2,t5,43da <WQueen+0x236>
    45b8:	e3e3e3e3          	bltu	t2,t5,43de <WQueen+0x23a>
    45bc:	e3e3e3e3          	bltu	t2,t5,43e2 <WQueen+0x23e>
    45c0:	e3e3e3e3          	bltu	t2,t5,43e6 <WQueen+0x242>
    45c4:	000000e3          	beqz	zero,4dc4 <WHorse+0x194>
    45c8:	e300                	.insn	2, 0xe300
    45ca:	000000e3          	beqz	zero,4dca <WHorse+0x19a>
    45ce:	e300                	.insn	2, 0xe300
    45d0:	000000e3          	beqz	zero,4dd0 <WHorse+0x1a0>
    45d4:	e300                	.insn	2, 0xe300
    45d6:	e3e3e3e3          	bltu	t2,t5,43fc <WQueen+0x258>
    45da:	e3e3e3e3          	bltu	t2,t5,4400 <WQueen+0x25c>
    45de:	e3e3e3e3          	bltu	t2,t5,4404 <WQueen+0x260>
    45e2:	ffff00e3          	beq	t5,t6,45c2 <WCastle+0x9a>
    45e6:	0000                	.insn	2, 0x
    45e8:	0000                	.insn	2, 0x
    45ea:	ffff                	.insn	2, 0xffff
    45ec:	0000                	.insn	2, 0x
    45ee:	0000                	.insn	2, 0x
    45f0:	ffff                	.insn	2, 0xffff
    45f2:	e300                	.insn	2, 0xe300
    45f4:	e3e3e3e3          	bltu	t2,t5,441a <WQueen+0x276>
    45f8:	e3e3e3e3          	bltu	t2,t5,441e <WQueen+0x27a>
    45fc:	e3e3e3e3          	bltu	t2,t5,4422 <WQueen+0x27e>
    4600:	ffff00e3          	beq	t5,t6,45e0 <WCastle+0xb8>
    4604:	ffff                	.insn	2, 0xffff
    4606:	ffff                	.insn	2, 0xffff
    4608:	ffff                	.insn	2, 0xffff
    460a:	ffff                	.insn	2, 0xffff
    460c:	ffff                	.insn	2, 0xffff
    460e:	ffff                	.insn	2, 0xffff
    4610:	e300                	.insn	2, 0xe300
    4612:	e3e3e3e3          	bltu	t2,t5,4438 <WQueen+0x294>
    4616:	e3e3e3e3          	bltu	t2,t5,443c <WQueen+0x298>
    461a:	e3e3e3e3          	bltu	t2,t5,4440 <WQueen+0x29c>
    461e:	ffff00e3          	beq	t5,t6,45fe <WCastle+0xd6>
    4622:	ffff                	.insn	2, 0xffff
    4624:	ffff                	.insn	2, 0xffff
    4626:	ffff                	.insn	2, 0xffff
    4628:	ffff                	.insn	2, 0xffff
    462a:	ffff                	.insn	2, 0xffff
    462c:	ffff                	.insn	2, 0xffff
    462e:	e300                	.insn	2, 0xe300
    4630:	e3e3e3e3          	bltu	t2,t5,4456 <WQueen+0x2b2>
    4634:	e3e3e3e3          	bltu	t2,t5,445a <WQueen+0x2b6>
    4638:	e3e3e3e3          	bltu	t2,t5,445e <WQueen+0x2ba>
    463c:	ff0000e3          	beq	zero,a6,461c <WCastle+0xf4>
    4640:	ffff                	.insn	2, 0xffff
    4642:	ffff                	.insn	2, 0xffff
    4644:	ffff                	.insn	2, 0xffff
    4646:	ffff                	.insn	2, 0xffff
    4648:	ffff                	.insn	2, 0xffff
    464a:	00ff e300 e3e3 e3e3 	.insn	10, 0xe3e3e3e3e3e3e30000ff
    4652:	e3e3 
    4654:	e3e3e3e3          	bltu	t2,t5,447a <WQueen+0x2d6>
    4658:	e3e3e3e3          	bltu	t2,t5,447e <WQueen+0x2da>
	...
    4668:	0000                	.insn	2, 0x
    466a:	e3e3e3e3          	bltu	t2,t5,4490 <WQueen+0x2ec>
    466e:	e3e3e3e3          	bltu	t2,t5,4494 <WQueen+0x2f0>
    4672:	e3e3e3e3          	bltu	t2,t5,4498 <WQueen+0x2f4>
    4676:	e3e3e3e3          	bltu	t2,t5,449c <WQueen+0x2f8>
    467a:	ffff00e3          	beq	t5,t6,465a <WCastle+0x132>
    467e:	ffff                	.insn	2, 0xffff
    4680:	ffff                	.insn	2, 0xffff
    4682:	ffff                	.insn	2, 0xffff
    4684:	ffff                	.insn	2, 0xffff
    4686:	e300                	.insn	2, 0xe300
    4688:	e3e3e3e3          	bltu	t2,t5,44ae <WQueen+0x30a>
    468c:	e3e3e3e3          	bltu	t2,t5,44b2 <WQueen+0x30e>
    4690:	e3e3e3e3          	bltu	t2,t5,44b6 <WQueen+0x312>
    4694:	e3e3e3e3          	bltu	t2,t5,44ba <WQueen+0x316>
    4698:	ffff00e3          	beq	t5,t6,4678 <WCastle+0x150>
    469c:	ffff                	.insn	2, 0xffff
    469e:	ffff                	.insn	2, 0xffff
    46a0:	ffff                	.insn	2, 0xffff
    46a2:	ffff                	.insn	2, 0xffff
    46a4:	e300                	.insn	2, 0xe300
    46a6:	e3e3e3e3          	bltu	t2,t5,44cc <WQueen+0x328>
    46aa:	e3e3e3e3          	bltu	t2,t5,44d0 <WQueen+0x32c>
    46ae:	e3e3e3e3          	bltu	t2,t5,44d4 <WQueen+0x330>
    46b2:	e3e3e3e3          	bltu	t2,t5,44d8 <WQueen+0x334>
    46b6:	ffff00e3          	beq	t5,t6,4696 <WCastle+0x16e>
    46ba:	ffff                	.insn	2, 0xffff
    46bc:	ffff                	.insn	2, 0xffff
    46be:	ffff                	.insn	2, 0xffff
    46c0:	ffff                	.insn	2, 0xffff
    46c2:	e300                	.insn	2, 0xe300
    46c4:	e3e3e3e3          	bltu	t2,t5,44ea <WQueen+0x346>
    46c8:	e3e3e3e3          	bltu	t2,t5,44ee <WQueen+0x34a>
    46cc:	e3e3e3e3          	bltu	t2,t5,44f2 <WQueen+0x34e>
    46d0:	e3e3e3e3          	bltu	t2,t5,44f6 <WQueen+0x352>
    46d4:	ffff00e3          	beq	t5,t6,46b4 <WCastle+0x18c>
    46d8:	ffff                	.insn	2, 0xffff
    46da:	ffff                	.insn	2, 0xffff
    46dc:	ffff                	.insn	2, 0xffff
    46de:	ffff                	.insn	2, 0xffff
    46e0:	e300                	.insn	2, 0xe300
    46e2:	e3e3e3e3          	bltu	t2,t5,4508 <WQueen+0x364>
    46e6:	e3e3e3e3          	bltu	t2,t5,450c <WQueen+0x368>
    46ea:	e3e3e3e3          	bltu	t2,t5,4510 <WQueen+0x36c>
    46ee:	e3e3e3e3          	bltu	t2,t5,4514 <WQueen+0x370>
    46f2:	ffff00e3          	beq	t5,t6,46d2 <WCastle+0x1aa>
    46f6:	ffff                	.insn	2, 0xffff
    46f8:	ffff                	.insn	2, 0xffff
    46fa:	ffff                	.insn	2, 0xffff
    46fc:	ffff                	.insn	2, 0xffff
    46fe:	e300                	.insn	2, 0xe300
    4700:	e3e3e3e3          	bltu	t2,t5,4526 <WQueen+0x382>
    4704:	e3e3e3e3          	bltu	t2,t5,452a <WCastle+0x2>
    4708:	e3e3e3e3          	bltu	t2,t5,452e <WCastle+0x6>
    470c:	e3e3e3e3          	bltu	t2,t5,4532 <WCastle+0xa>
    4710:	ffff00e3          	beq	t5,t6,46f0 <WCastle+0x1c8>
    4714:	ffff                	.insn	2, 0xffff
    4716:	ffff                	.insn	2, 0xffff
    4718:	ffff                	.insn	2, 0xffff
    471a:	ffff                	.insn	2, 0xffff
    471c:	e300                	.insn	2, 0xe300
    471e:	e3e3e3e3          	bltu	t2,t5,4544 <WCastle+0x1c>
    4722:	e3e3e3e3          	bltu	t2,t5,4548 <WCastle+0x20>
    4726:	e3e3e3e3          	bltu	t2,t5,454c <WCastle+0x24>
    472a:	e3e3e3e3          	bltu	t2,t5,4550 <WCastle+0x28>
    472e:	ffff00e3          	beq	t5,t6,470e <WCastle+0x1e6>
    4732:	ffff                	.insn	2, 0xffff
    4734:	ffff                	.insn	2, 0xffff
    4736:	ffff                	.insn	2, 0xffff
    4738:	ffff                	.insn	2, 0xffff
    473a:	e300                	.insn	2, 0xe300
    473c:	e3e3e3e3          	bltu	t2,t5,4562 <WCastle+0x3a>
    4740:	e3e3e3e3          	bltu	t2,t5,4566 <WCastle+0x3e>
    4744:	e3e3e3e3          	bltu	t2,t5,456a <WCastle+0x42>
    4748:	e3e3e3e3          	bltu	t2,t5,456e <WCastle+0x46>
    474c:	ffff00e3          	beq	t5,t6,472c <WCastle+0x204>
    4750:	ffff                	.insn	2, 0xffff
    4752:	ffff                	.insn	2, 0xffff
    4754:	ffff                	.insn	2, 0xffff
    4756:	ffff                	.insn	2, 0xffff
    4758:	e300                	.insn	2, 0xe300
    475a:	e3e3e3e3          	bltu	t2,t5,4580 <WCastle+0x58>
    475e:	e3e3e3e3          	bltu	t2,t5,4584 <WCastle+0x5c>
    4762:	e3e3e3e3          	bltu	t2,t5,4588 <WCastle+0x60>
    4766:	e3e3e3e3          	bltu	t2,t5,458c <WCastle+0x64>
    476a:	ffff00e3          	beq	t5,t6,474a <WCastle+0x222>
    476e:	ffff                	.insn	2, 0xffff
    4770:	ffff                	.insn	2, 0xffff
    4772:	ffff                	.insn	2, 0xffff
    4774:	ffff                	.insn	2, 0xffff
    4776:	e300                	.insn	2, 0xe300
    4778:	e3e3e3e3          	bltu	t2,t5,459e <WCastle+0x76>
    477c:	e3e3e3e3          	bltu	t2,t5,45a2 <WCastle+0x7a>
    4780:	e3e3e3e3          	bltu	t2,t5,45a6 <WCastle+0x7e>
    4784:	e3e3e3e3          	bltu	t2,t5,45aa <WCastle+0x82>
	...
    4794:	0000                	.insn	2, 0x
    4796:	e3e3e3e3          	bltu	t2,t5,45bc <WCastle+0x94>
    479a:	e3e3e3e3          	bltu	t2,t5,45c0 <WCastle+0x98>
    479e:	e3e3e3e3          	bltu	t2,t5,45c4 <WCastle+0x9c>
    47a2:	00e3e3e3          	bltu	t2,a4,4fa8 <WHorse+0x378>
    47a6:	ff00                	.insn	2, 0xff00
    47a8:	ffff                	.insn	2, 0xffff
    47aa:	ffff                	.insn	2, 0xffff
    47ac:	ffff                	.insn	2, 0xffff
    47ae:	ffff                	.insn	2, 0xffff
    47b0:	ffff                	.insn	2, 0xffff
    47b2:	00ff e300 e3e3 e3e3 	.insn	10, 0xe3e3e3e3e3e3e30000ff
    47ba:	e3e3 
    47bc:	e3e3e3e3          	bltu	t2,t5,45e2 <WCastle+0xba>
    47c0:	00e3e3e3          	bltu	t2,a4,4fc6 <WSoldier+0x12>
    47c4:	ffff                	.insn	2, 0xffff
    47c6:	ffff                	.insn	2, 0xffff
    47c8:	ffff                	.insn	2, 0xffff
    47ca:	ffff                	.insn	2, 0xffff
    47cc:	ffff                	.insn	2, 0xffff
    47ce:	ffff                	.insn	2, 0xffff
    47d0:	ffff                	.insn	2, 0xffff
    47d2:	e300                	.insn	2, 0xe300
    47d4:	e3e3e3e3          	bltu	t2,t5,45fa <WCastle+0xd2>
    47d8:	e3e3e3e3          	bltu	t2,t5,45fe <WCastle+0xd6>
    47dc:	00e3e3e3          	bltu	t2,a4,4fe2 <WSoldier+0x2e>
	...
    47f0:	0000                	.insn	2, 0x
    47f2:	e300                	.insn	2, 0xe300
    47f4:	e3e3e3e3          	bltu	t2,t5,461a <WCastle+0xf2>
    47f8:	e3e3e3e3          	bltu	t2,t5,461e <WCastle+0xf6>
    47fc:	ffff00e3          	beq	t5,t6,47dc <WCastle+0x2b4>
    4800:	ffff                	.insn	2, 0xffff
    4802:	ffff                	.insn	2, 0xffff
    4804:	ffff                	.insn	2, 0xffff
    4806:	ffff                	.insn	2, 0xffff
    4808:	ffff                	.insn	2, 0xffff
    480a:	ffff                	.insn	2, 0xffff
    480c:	ffff                	.insn	2, 0xffff
    480e:	ffff                	.insn	2, 0xffff
    4810:	e300                	.insn	2, 0xe300
    4812:	e3e3e3e3          	bltu	t2,t5,4638 <WCastle+0x110>
    4816:	e3e3e3e3          	bltu	t2,t5,463c <WCastle+0x114>
    481a:	ffff00e3          	beq	t5,t6,47fa <WCastle+0x2d2>
    481e:	ffff                	.insn	2, 0xffff
    4820:	ffff                	.insn	2, 0xffff
    4822:	ffff                	.insn	2, 0xffff
    4824:	ffff                	.insn	2, 0xffff
    4826:	ffff                	.insn	2, 0xffff
    4828:	ffff                	.insn	2, 0xffff
    482a:	ffff                	.insn	2, 0xffff
    482c:	ffff                	.insn	2, 0xffff
    482e:	e300                	.insn	2, 0xe300
    4830:	e3e3e3e3          	bltu	t2,t5,4656 <WCastle+0x12e>
    4834:	e3e3e3e3          	bltu	t2,t5,465a <WCastle+0x132>
    4838:	000000e3          	beqz	zero,5038 <WSoldier+0x84>
	...
    484c:	e300                	.insn	2, 0xe300
    484e:	e3e3e3e3          	bltu	t2,t5,4674 <WCastle+0x14c>
    4852:	e3e3e3e3          	bltu	t2,t5,4678 <WCastle+0x150>
    4856:	e3e3e3e3          	bltu	t2,t5,467c <WCastle+0x154>
    485a:	e3e3e3e3          	bltu	t2,t5,4680 <WCastle+0x158>
    485e:	e3e3e3e3          	bltu	t2,t5,4684 <WCastle+0x15c>
    4862:	e3e3e3e3          	bltu	t2,t5,4688 <WCastle+0x160>
    4866:	e3e3e3e3          	bltu	t2,t5,468c <WCastle+0x164>
    486a:	e3e3e3e3          	bltu	t2,t5,4690 <WCastle+0x168>
    486e:	e3e3e3e3          	bltu	t2,t5,4694 <WCastle+0x16c>
    4872:	e3e3e3e3          	bltu	t2,t5,4698 <WCastle+0x170>
    4876:	e3e3e3e3          	bltu	t2,t5,469c <WCastle+0x174>
    487a:	e3e3e3e3          	bltu	t2,t5,46a0 <WCastle+0x178>
    487e:	e3e3e3e3          	bltu	t2,t5,46a4 <WCastle+0x17c>
    4882:	e3e3e3e3          	bltu	t2,t5,46a8 <WCastle+0x180>
    4886:	e3e3e3e3          	bltu	t2,t5,46ac <WCastle+0x184>
    488a:	e3e3e3e3          	bltu	t2,t5,46b0 <WCastle+0x188>
    488e:	e3e3e3e3          	bltu	t2,t5,46b4 <WCastle+0x18c>
    4892:	e3e3e3e3          	bltu	t2,t5,46b8 <WCastle+0x190>
    4896:	e3e3e3e3          	bltu	t2,t5,46bc <WCastle+0x194>
    489a:	e3e3e3e3          	bltu	t2,t5,46c0 <WCastle+0x198>
    489e:	e3e3e3e3          	bltu	t2,t5,46c4 <WCastle+0x19c>
    48a2:	e3e3e3e3          	bltu	t2,t5,46c8 <WCastle+0x1a0>
    48a6:	e3e3e3e3          	bltu	t2,t5,46cc <WCastle+0x1a4>
    48aa:	          	bltu	t2,t5,46d0 <WCastle+0x1a8>

000048ac <WBishop>:
    48ac:	e3e3e3e3          	bltu	t2,t5,46d2 <WCastle+0x1aa>
    48b0:	e3e3e3e3          	bltu	t2,t5,46d6 <WCastle+0x1ae>
    48b4:	e3e3e3e3          	bltu	t2,t5,46da <WCastle+0x1b2>
    48b8:	e3e3e3e3          	bltu	t2,t5,46de <WCastle+0x1b6>
    48bc:	e3e3e3e3          	bltu	t2,t5,46e2 <WCastle+0x1ba>
    48c0:	e3e3e3e3          	bltu	t2,t5,46e6 <WCastle+0x1be>
    48c4:	e3e3e3e3          	bltu	t2,t5,46ea <WCastle+0x1c2>
    48c8:	e3e3e3e3          	bltu	t2,t5,46ee <WCastle+0x1c6>
    48cc:	e3e3e3e3          	bltu	t2,t5,46f2 <WCastle+0x1ca>
    48d0:	e3e3e3e3          	bltu	t2,t5,46f6 <WCastle+0x1ce>
    48d4:	e3e3e3e3          	bltu	t2,t5,46fa <WCastle+0x1d2>
    48d8:	e3e3e3e3          	bltu	t2,t5,46fe <WCastle+0x1d6>
    48dc:	e3e3e3e3          	bltu	t2,t5,4702 <WCastle+0x1da>
    48e0:	e3e3e3e3          	bltu	t2,t5,4706 <WCastle+0x1de>
    48e4:	e3e3e3e3          	bltu	t2,t5,470a <WCastle+0x1e2>
    48e8:	e3e3e3e3          	bltu	t2,t5,470e <WCastle+0x1e6>
    48ec:	e3e3e3e3          	bltu	t2,t5,4712 <WCastle+0x1ea>
    48f0:	e3e3e3e3          	bltu	t2,t5,4716 <WCastle+0x1ee>
    48f4:	e3e3e3e3          	bltu	t2,t5,471a <WCastle+0x1f2>
    48f8:	e3e3e3e3          	bltu	t2,t5,471e <WCastle+0x1f6>
    48fc:	e3e3e3e3          	bltu	t2,t5,4722 <WCastle+0x1fa>
    4900:	e3e3e3e3          	bltu	t2,t5,4726 <WCastle+0x1fe>
    4904:	e3e3e3e3          	bltu	t2,t5,472a <WCastle+0x202>
    4908:	e3e3e3e3          	bltu	t2,t5,472e <WCastle+0x206>
    490c:	e3e3e3e3          	bltu	t2,t5,4732 <WCastle+0x20a>
    4910:	e3e3e3e3          	bltu	t2,t5,4736 <WCastle+0x20e>
    4914:	0000                	.insn	2, 0x
    4916:	e3e3e3e3          	bltu	t2,t5,473c <WCastle+0x214>
    491a:	e3e3e3e3          	bltu	t2,t5,4740 <WCastle+0x218>
    491e:	e3e3e3e3          	bltu	t2,t5,4744 <WCastle+0x21c>
    4922:	e3e3e3e3          	bltu	t2,t5,4748 <WCastle+0x220>
    4926:	e3e3e3e3          	bltu	t2,t5,474c <WCastle+0x224>
    492a:	e3e3e3e3          	bltu	t2,t5,4750 <WCastle+0x228>
    492e:	00e3e3e3          	bltu	t2,a4,5134 <WSoldier+0x180>
    4932:	ffff                	.insn	2, 0xffff
    4934:	e300                	.insn	2, 0xe300
    4936:	e3e3e3e3          	bltu	t2,t5,475c <WCastle+0x234>
    493a:	e3e3e3e3          	bltu	t2,t5,4760 <WCastle+0x238>
    493e:	e3e3e3e3          	bltu	t2,t5,4764 <WCastle+0x23c>
    4942:	e3e3e3e3          	bltu	t2,t5,4768 <WCastle+0x240>
    4946:	e3e3e3e3          	bltu	t2,t5,476c <WCastle+0x244>
    494a:	e3e3e3e3          	bltu	t2,t5,4770 <WCastle+0x248>
    494e:	ffff00e3          	beq	t5,t6,492e <WBishop+0x82>
    4952:	e300                	.insn	2, 0xe300
    4954:	e3e3e3e3          	bltu	t2,t5,477a <WCastle+0x252>
    4958:	e3e3e3e3          	bltu	t2,t5,477e <WCastle+0x256>
    495c:	e3e3e3e3          	bltu	t2,t5,4782 <WCastle+0x25a>
    4960:	e3e3e3e3          	bltu	t2,t5,4786 <WCastle+0x25e>
    4964:	e3e3e3e3          	bltu	t2,t5,478a <WCastle+0x262>
    4968:	e3e3e3e3          	bltu	t2,t5,478e <WCastle+0x266>
    496c:	0000e3e3          	bltu	ra,zero,5172 <WSoldier+0x1be>
    4970:	e3e3e3e3          	bltu	t2,t5,4796 <WCastle+0x26e>
    4974:	e3e3e3e3          	bltu	t2,t5,479a <WCastle+0x272>
    4978:	e3e3e3e3          	bltu	t2,t5,479e <WCastle+0x276>
    497c:	e3e3e3e3          	bltu	t2,t5,47a2 <WCastle+0x27a>
    4980:	e3e3e3e3          	bltu	t2,t5,47a6 <WCastle+0x27e>
    4984:	e3e3e3e3          	bltu	t2,t5,47aa <WCastle+0x282>
    4988:	0000e3e3          	bltu	ra,zero,518e <WSoldier+0x1da>
    498c:	ffff                	.insn	2, 0xffff
    498e:	0000                	.insn	2, 0x
    4990:	e3e3e3e3          	bltu	t2,t5,47b6 <WCastle+0x28e>
    4994:	e3e3e3e3          	bltu	t2,t5,47ba <WCastle+0x292>
    4998:	e3e3e3e3          	bltu	t2,t5,47be <WCastle+0x296>
    499c:	e3e3e3e3          	bltu	t2,t5,47c2 <WCastle+0x29a>
    49a0:	e3e3e3e3          	bltu	t2,t5,47c6 <WCastle+0x29e>
    49a4:	00e3e3e3          	bltu	t2,a4,51aa <WSoldier+0x1f6>
    49a8:	ffff                	.insn	2, 0xffff
    49aa:	ffff                	.insn	2, 0xffff
    49ac:	ffff                	.insn	2, 0xffff
    49ae:	e300                	.insn	2, 0xe300
    49b0:	e3e3e3e3          	bltu	t2,t5,47d6 <WCastle+0x2ae>
    49b4:	e3e3e3e3          	bltu	t2,t5,47da <WCastle+0x2b2>
    49b8:	e3e3e3e3          	bltu	t2,t5,47de <WCastle+0x2b6>
    49bc:	e3e3e3e3          	bltu	t2,t5,47e2 <WCastle+0x2ba>
    49c0:	e3e3e3e3          	bltu	t2,t5,47e6 <WCastle+0x2be>
    49c4:	ff00                	.insn	2, 0xff00
    49c6:	ffff                	.insn	2, 0xffff
    49c8:	0000                	.insn	2, 0x
    49ca:	ffff                	.insn	2, 0xffff
    49cc:	00ff e3e3 e3e3 e3e3 	.insn	10, 0xe3e3e3e3e3e3e3e300ff
    49d4:	e3e3 
    49d6:	e3e3e3e3          	bltu	t2,t5,47fc <WCastle+0x2d4>
    49da:	e3e3e3e3          	bltu	t2,t5,4800 <WCastle+0x2d8>
    49de:	00e3e3e3          	bltu	t2,a4,51e4 <WSoldier+0x230>
    49e2:	ffff                	.insn	2, 0xffff
    49e4:	00ff 0000 ff00 ffff 	.insn	10, 0xe300ffffff00000000ff
    49ec:	e300 
    49ee:	e3e3e3e3          	bltu	t2,t5,4814 <WCastle+0x2ec>
    49f2:	e3e3e3e3          	bltu	t2,t5,4818 <WCastle+0x2f0>
    49f6:	e3e3e3e3          	bltu	t2,t5,481c <WCastle+0x2f4>
    49fa:	e3e3e3e3          	bltu	t2,t5,4820 <WCastle+0x2f8>
    49fe:	ff00                	.insn	2, 0xff00
    4a00:	ffff                	.insn	2, 0xffff
    4a02:	00ff 0000 ff00 ffff 	.insn	10, 0x00ffffffff00000000ff
    4a0a:	00ff 
    4a0c:	e3e3e3e3          	bltu	t2,t5,4832 <WCastle+0x30a>
    4a10:	e3e3e3e3          	bltu	t2,t5,4836 <WCastle+0x30e>
    4a14:	e3e3e3e3          	bltu	t2,t5,483a <WCastle+0x312>
    4a18:	e3e3e3e3          	bltu	t2,t5,483e <WCastle+0x316>
    4a1c:	ff00                	.insn	2, 0xff00
    4a1e:	ffff                	.insn	2, 0xffff
    4a20:	ffff                	.insn	2, 0xffff
    4a22:	0000                	.insn	2, 0x
    4a24:	ffff                	.insn	2, 0xffff
    4a26:	ffff                	.insn	2, 0xffff
    4a28:	00ff e3e3 e3e3 e3e3 	.insn	10, 0xe3e3e3e3e3e3e3e300ff
    4a30:	e3e3 
    4a32:	e3e3e3e3          	bltu	t2,t5,4858 <WCastle+0x330>
    4a36:	e3e3e3e3          	bltu	t2,t5,485c <WCastle+0x334>
    4a3a:	ff00                	.insn	2, 0xff00
    4a3c:	ffff                	.insn	2, 0xffff
    4a3e:	ffff                	.insn	2, 0xffff
    4a40:	ffff                	.insn	2, 0xffff
    4a42:	ffff                	.insn	2, 0xffff
    4a44:	ffff                	.insn	2, 0xffff
    4a46:	00ff e3e3 e3e3 e3e3 	.insn	10, 0xe3e3e3e3e3e3e3e300ff
    4a4e:	e3e3 
    4a50:	e3e3e3e3          	bltu	t2,t5,4876 <WCastle+0x34e>
    4a54:	e3e3e3e3          	bltu	t2,t5,487a <WCastle+0x352>
    4a58:	ff00                	.insn	2, 0xff00
    4a5a:	ffff                	.insn	2, 0xffff
    4a5c:	ffff                	.insn	2, 0xffff
    4a5e:	ffff                	.insn	2, 0xffff
    4a60:	ffff                	.insn	2, 0xffff
    4a62:	ffff                	.insn	2, 0xffff
    4a64:	00ff e3e3 e3e3 e3e3 	.insn	10, 0xe3e3e3e3e3e3e3e300ff
    4a6c:	e3e3 
    4a6e:	e3e3e3e3          	bltu	t2,t5,4894 <WCastle+0x36c>
    4a72:	e3e3e3e3          	bltu	t2,t5,4898 <WCastle+0x370>
    4a76:	ffff00e3          	beq	t5,t6,4a56 <WBishop+0x1aa>
    4a7a:	ffff                	.insn	2, 0xffff
    4a7c:	ffff                	.insn	2, 0xffff
    4a7e:	ffff                	.insn	2, 0xffff
    4a80:	ffff                	.insn	2, 0xffff
    4a82:	e300                	.insn	2, 0xe300
    4a84:	e3e3e3e3          	bltu	t2,t5,48aa <WCastle+0x382>
    4a88:	e3e3e3e3          	bltu	t2,t5,48ae <WBishop+0x2>
    4a8c:	e3e3e3e3          	bltu	t2,t5,48b2 <WBishop+0x6>
    4a90:	e3e3e3e3          	bltu	t2,t5,48b6 <WBishop+0xa>
    4a94:	ff00e3e3          	bltu	ra,a6,4a7a <WBishop+0x1ce>
    4a98:	ffff                	.insn	2, 0xffff
    4a9a:	ffff                	.insn	2, 0xffff
    4a9c:	ffff                	.insn	2, 0xffff
    4a9e:	00ff e3e3 e3e3 e3e3 	.insn	10, 0xe3e3e3e3e3e3e3e300ff
    4aa6:	e3e3 
    4aa8:	e3e3e3e3          	bltu	t2,t5,48ce <WBishop+0x22>
    4aac:	e3e3e3e3          	bltu	t2,t5,48d2 <WBishop+0x26>
    4ab0:	e3e3e3e3          	bltu	t2,t5,48d6 <WBishop+0x2a>
    4ab4:	000000e3          	beqz	zero,52b4 <WSoldier+0x300>
    4ab8:	0000                	.insn	2, 0x
    4aba:	0000                	.insn	2, 0x
    4abc:	e300                	.insn	2, 0xe300
    4abe:	e3e3e3e3          	bltu	t2,t5,48e4 <WBishop+0x38>
    4ac2:	e3e3e3e3          	bltu	t2,t5,48e8 <WBishop+0x3c>
    4ac6:	e3e3e3e3          	bltu	t2,t5,48ec <WBishop+0x40>
    4aca:	e3e3e3e3          	bltu	t2,t5,48f0 <WBishop+0x44>
    4ace:	e3e3e3e3          	bltu	t2,t5,48f4 <WBishop+0x48>
    4ad2:	ff00                	.insn	2, 0xff00
    4ad4:	ffff                	.insn	2, 0xffff
    4ad6:	ffff                	.insn	2, 0xffff
    4ad8:	ffff                	.insn	2, 0xffff
    4ada:	00ff e3e3 e3e3 e3e3 	.insn	10, 0xe3e3e3e3e3e3e3e300ff
    4ae2:	e3e3 
    4ae4:	e3e3e3e3          	bltu	t2,t5,490a <WBishop+0x5e>
    4ae8:	e3e3e3e3          	bltu	t2,t5,490e <WBishop+0x62>
    4aec:	00e3e3e3          	bltu	t2,a4,52f2 <WSoldier+0x33e>
	...
    4af8:	0000                	.insn	2, 0x
    4afa:	e300                	.insn	2, 0xe300
    4afc:	e3e3e3e3          	bltu	t2,t5,4922 <WBishop+0x76>
    4b00:	e3e3e3e3          	bltu	t2,t5,4926 <WBishop+0x7a>
    4b04:	e3e3e3e3          	bltu	t2,t5,492a <WBishop+0x7e>
    4b08:	e3e3e3e3          	bltu	t2,t5,492e <WBishop+0x82>
    4b0c:	ffff00e3          	beq	t5,t6,4aec <WBishop+0x240>
    4b10:	ffff                	.insn	2, 0xffff
    4b12:	ffff                	.insn	2, 0xffff
    4b14:	ffff                	.insn	2, 0xffff
    4b16:	ffff                	.insn	2, 0xffff
    4b18:	e300                	.insn	2, 0xe300
    4b1a:	e3e3e3e3          	bltu	t2,t5,4940 <WBishop+0x94>
    4b1e:	e3e3e3e3          	bltu	t2,t5,4944 <WBishop+0x98>
    4b22:	e3e3e3e3          	bltu	t2,t5,4948 <WBishop+0x9c>
    4b26:	e3e3e3e3          	bltu	t2,t5,494c <WBishop+0xa0>
    4b2a:	ff00e3e3          	bltu	ra,a6,4b10 <WBishop+0x264>
    4b2e:	ffff                	.insn	2, 0xffff
    4b30:	ffff                	.insn	2, 0xffff
    4b32:	ffff                	.insn	2, 0xffff
    4b34:	00ff e3e3 e3e3 e3e3 	.insn	10, 0xe3e3e3e3e3e3e3e300ff
    4b3c:	e3e3 
    4b3e:	e3e3e3e3          	bltu	t2,t5,4964 <WBishop+0xb8>
    4b42:	e3e3e3e3          	bltu	t2,t5,4968 <WBishop+0xbc>
    4b46:	e3e3e3e3          	bltu	t2,t5,496c <WBishop+0xc0>
    4b4a:	000000e3          	beqz	zero,534a <WSoldier+0x396>
    4b4e:	0000                	.insn	2, 0x
    4b50:	0000                	.insn	2, 0x
    4b52:	e300                	.insn	2, 0xe300
    4b54:	e3e3e3e3          	bltu	t2,t5,497a <WBishop+0xce>
    4b58:	e3e3e3e3          	bltu	t2,t5,497e <WBishop+0xd2>
    4b5c:	e3e3e3e3          	bltu	t2,t5,4982 <WBishop+0xd6>
    4b60:	00e3e3e3          	bltu	t2,a4,5366 <WSoldier+0x3b2>
    4b64:	0000                	.insn	2, 0x
    4b66:	0000                	.insn	2, 0x
    4b68:	0000                	.insn	2, 0x
    4b6a:	ffff                	.insn	2, 0xffff
    4b6c:	ffff                	.insn	2, 0xffff
    4b6e:	ffff                	.insn	2, 0xffff
    4b70:	0000                	.insn	2, 0x
    4b72:	0000                	.insn	2, 0x
    4b74:	0000                	.insn	2, 0x
    4b76:	e300                	.insn	2, 0xe300
    4b78:	e3e3e3e3          	bltu	t2,t5,499e <WBishop+0xf2>
    4b7c:	00e3e3e3          	bltu	t2,a4,5382 <WSoldier+0x3ce>
    4b80:	0000                	.insn	2, 0x
    4b82:	ffff                	.insn	2, 0xffff
    4b84:	ffff                	.insn	2, 0xffff
    4b86:	ffff                	.insn	2, 0xffff
    4b88:	00ff 0000 ff00 ffff 	.insn	10, 0xffffffffff00000000ff
    4b90:	ffff 
    4b92:	ffff                	.insn	2, 0xffff
    4b94:	0000                	.insn	2, 0x
    4b96:	e300                	.insn	2, 0xe300
    4b98:	e3e3e3e3          	bltu	t2,t5,49be <WBishop+0x112>
    4b9c:	ffff00e3          	beq	t5,t6,4b7c <WBishop+0x2d0>
    4ba0:	00ff 0000 0000 0000 	.insn	10, 0xe3e300000000000000ff
    4ba8:	e3e3 
    4baa:	0000                	.insn	2, 0x
    4bac:	0000                	.insn	2, 0x
    4bae:	0000                	.insn	2, 0x
    4bb0:	ff00                	.insn	2, 0xff00
    4bb2:	ffff                	.insn	2, 0xffff
    4bb4:	e300                	.insn	2, 0xe300
    4bb6:	e3e3e3e3          	bltu	t2,t5,49dc <WBishop+0x130>
    4bba:	000000e3          	beqz	zero,53ba <WSoldier+0x406>
    4bbe:	0000                	.insn	2, 0x
    4bc0:	e3e3e3e3          	bltu	t2,t5,49e6 <WBishop+0x13a>
    4bc4:	e3e3e3e3          	bltu	t2,t5,49ea <WBishop+0x13e>
    4bc8:	e3e3e3e3          	bltu	t2,t5,49ee <WBishop+0x142>
    4bcc:	0000e3e3          	bltu	ra,zero,53d2 <WSoldier+0x41e>
    4bd0:	0000                	.insn	2, 0x
    4bd2:	e300                	.insn	2, 0xe300
    4bd4:	e3e3e3e3          	bltu	t2,t5,49fa <WBishop+0x14e>
    4bd8:	e3e3e3e3          	bltu	t2,t5,49fe <WBishop+0x152>
    4bdc:	e3e3e3e3          	bltu	t2,t5,4a02 <WBishop+0x156>
    4be0:	e3e3e3e3          	bltu	t2,t5,4a06 <WBishop+0x15a>
    4be4:	e3e3e3e3          	bltu	t2,t5,4a0a <WBishop+0x15e>
    4be8:	e3e3e3e3          	bltu	t2,t5,4a0e <WBishop+0x162>
    4bec:	e3e3e3e3          	bltu	t2,t5,4a12 <WBishop+0x166>
    4bf0:	e3e3e3e3          	bltu	t2,t5,4a16 <WBishop+0x16a>
    4bf4:	e3e3e3e3          	bltu	t2,t5,4a1a <WBishop+0x16e>
    4bf8:	e3e3e3e3          	bltu	t2,t5,4a1e <WBishop+0x172>
    4bfc:	e3e3e3e3          	bltu	t2,t5,4a22 <WBishop+0x176>
    4c00:	e3e3e3e3          	bltu	t2,t5,4a26 <WBishop+0x17a>
    4c04:	e3e3e3e3          	bltu	t2,t5,4a2a <WBishop+0x17e>
    4c08:	e3e3e3e3          	bltu	t2,t5,4a2e <WBishop+0x182>
    4c0c:	e3e3e3e3          	bltu	t2,t5,4a32 <WBishop+0x186>
    4c10:	e3e3e3e3          	bltu	t2,t5,4a36 <WBishop+0x18a>
    4c14:	e3e3e3e3          	bltu	t2,t5,4a3a <WBishop+0x18e>
    4c18:	e3e3e3e3          	bltu	t2,t5,4a3e <WBishop+0x192>
    4c1c:	e3e3e3e3          	bltu	t2,t5,4a42 <WBishop+0x196>
    4c20:	e3e3e3e3          	bltu	t2,t5,4a46 <WBishop+0x19a>
    4c24:	e3e3e3e3          	bltu	t2,t5,4a4a <WBishop+0x19e>
    4c28:	e3e3e3e3          	bltu	t2,t5,4a4e <WBishop+0x1a2>
    4c2c:	e3e3e3e3          	bltu	t2,t5,4a52 <WBishop+0x1a6>

00004c30 <WHorse>:
    4c30:	e3e3e3e3          	bltu	t2,t5,4a56 <WBishop+0x1aa>
    4c34:	e3e3e3e3          	bltu	t2,t5,4a5a <WBishop+0x1ae>
    4c38:	e3e3e3e3          	bltu	t2,t5,4a5e <WBishop+0x1b2>
    4c3c:	e3e3e3e3          	bltu	t2,t5,4a62 <WBishop+0x1b6>
    4c40:	e3e3e3e3          	bltu	t2,t5,4a66 <WBishop+0x1ba>
    4c44:	e3e3e3e3          	bltu	t2,t5,4a6a <WBishop+0x1be>
    4c48:	e3e3e3e3          	bltu	t2,t5,4a6e <WBishop+0x1c2>
    4c4c:	e3e3e3e3          	bltu	t2,t5,4a72 <WBishop+0x1c6>
    4c50:	e3e3e3e3          	bltu	t2,t5,4a76 <WBishop+0x1ca>
    4c54:	e3e3e3e3          	bltu	t2,t5,4a7a <WBishop+0x1ce>
    4c58:	e3e3e3e3          	bltu	t2,t5,4a7e <WBishop+0x1d2>
    4c5c:	e3e3e3e3          	bltu	t2,t5,4a82 <WBishop+0x1d6>
    4c60:	e3e3e3e3          	bltu	t2,t5,4a86 <WBishop+0x1da>
    4c64:	e3e3e3e3          	bltu	t2,t5,4a8a <WBishop+0x1de>
    4c68:	e3e3e3e3          	bltu	t2,t5,4a8e <WBishop+0x1e2>
    4c6c:	e3e3e3e3          	bltu	t2,t5,4a92 <WBishop+0x1e6>
    4c70:	e3e3e3e3          	bltu	t2,t5,4a96 <WBishop+0x1ea>
    4c74:	e3e3e3e3          	bltu	t2,t5,4a9a <WBishop+0x1ee>
    4c78:	e3e3e3e3          	bltu	t2,t5,4a9e <WBishop+0x1f2>
    4c7c:	e3e3e3e3          	bltu	t2,t5,4aa2 <WBishop+0x1f6>
    4c80:	e3e3e3e3          	bltu	t2,t5,4aa6 <WBishop+0x1fa>
    4c84:	e3e3e3e3          	bltu	t2,t5,4aaa <WBishop+0x1fe>
    4c88:	e3e3e3e3          	bltu	t2,t5,4aae <WBishop+0x202>
    4c8c:	e3e3e3e3          	bltu	t2,t5,4ab2 <WBishop+0x206>
    4c90:	e3e3e3e3          	bltu	t2,t5,4ab6 <WBishop+0x20a>
    4c94:	e3e3e3e3          	bltu	t2,t5,4aba <WBishop+0x20e>
    4c98:	e3e3e3e3          	bltu	t2,t5,4abe <WBishop+0x212>
    4c9c:	e3e3e3e3          	bltu	t2,t5,4ac2 <WBishop+0x216>
    4ca0:	e3e3e3e3          	bltu	t2,t5,4ac6 <WBishop+0x21a>
    4ca4:	e3e3e3e3          	bltu	t2,t5,4aca <WBishop+0x21e>
    4ca8:	e3e3e3e3          	bltu	t2,t5,4ace <WBishop+0x222>
    4cac:	e3e3e3e3          	bltu	t2,t5,4ad2 <WBishop+0x226>
    4cb0:	0000                	.insn	2, 0x
    4cb2:	00e3e3e3          	bltu	t2,a4,54b8 <WSoldier+0x504>
    4cb6:	e300                	.insn	2, 0xe300
    4cb8:	e3e3e3e3          	bltu	t2,t5,4ade <WBishop+0x232>
    4cbc:	e3e3e3e3          	bltu	t2,t5,4ae2 <WBishop+0x236>
    4cc0:	e3e3e3e3          	bltu	t2,t5,4ae6 <WBishop+0x23a>
    4cc4:	e3e3e3e3          	bltu	t2,t5,4aea <WBishop+0x23e>
    4cc8:	e3e3e3e3          	bltu	t2,t5,4aee <WBishop+0x242>
    4ccc:	ff00e3e3          	bltu	ra,a6,4cb2 <WHorse+0x82>
    4cd0:	e300                	.insn	2, 0xe300
    4cd2:	ff00                	.insn	2, 0xff00
    4cd4:	e300                	.insn	2, 0xe300
    4cd6:	e3e3e3e3          	bltu	t2,t5,4afc <WBishop+0x250>
    4cda:	e3e3e3e3          	bltu	t2,t5,4b00 <WBishop+0x254>
    4cde:	e3e3e3e3          	bltu	t2,t5,4b04 <WBishop+0x258>
    4ce2:	e3e3e3e3          	bltu	t2,t5,4b08 <WBishop+0x25c>
    4ce6:	e3e3e3e3          	bltu	t2,t5,4b0c <WBishop+0x260>
    4cea:	ff00e3e3          	bltu	ra,a6,4cd0 <WHorse+0xa0>
    4cee:	00ff ffff 00ff 0000 	.insn	10, 0xe300000000ffffff00ff
    4cf6:	e300 
    4cf8:	e3e3e3e3          	bltu	t2,t5,4b1e <WBishop+0x272>
    4cfc:	e3e3e3e3          	bltu	t2,t5,4b22 <WBishop+0x276>
    4d00:	e3e3e3e3          	bltu	t2,t5,4b26 <WBishop+0x27a>
    4d04:	e3e3e3e3          	bltu	t2,t5,4b2a <WBishop+0x27e>
    4d08:	24e3e3e3          	bltu	t2,a4,574e <WSoldier+0x79a>
    4d0c:	ffff                	.insn	2, 0xffff
    4d0e:	ffff                	.insn	2, 0xffff
    4d10:	ffff                	.insn	2, 0xffff
    4d12:	ffff                	.insn	2, 0xffff
    4d14:	0000                	.insn	2, 0x
    4d16:	e3e3e3e3          	bltu	t2,t5,4b3c <WBishop+0x290>
    4d1a:	e3e3e3e3          	bltu	t2,t5,4b40 <WBishop+0x294>
    4d1e:	e3e3e3e3          	bltu	t2,t5,4b44 <WBishop+0x298>
    4d22:	e3e3e3e3          	bltu	t2,t5,4b48 <WBishop+0x29c>
    4d26:	ff00e3e3          	bltu	ra,a6,4d0c <WHorse+0xdc>
    4d2a:	ffff                	.insn	2, 0xffff
    4d2c:	ffff                	.insn	2, 0xffff
    4d2e:	ffff                	.insn	2, 0xffff
    4d30:	ffff                	.insn	2, 0xffff
    4d32:	00ff e300 e3e3 e3e3 	.insn	10, 0xe3e3e3e3e3e3e30000ff
    4d3a:	e3e3 
    4d3c:	e3e3e3e3          	bltu	t2,t5,4b62 <WBishop+0x2b6>
    4d40:	e3e3e3e3          	bltu	t2,t5,4b66 <WBishop+0x2ba>
    4d44:	ffff00e3          	beq	t5,t6,4d24 <WHorse+0xf4>
    4d48:	ff00                	.insn	2, 0xff00
    4d4a:	ffff                	.insn	2, 0xffff
    4d4c:	ffff                	.insn	2, 0xffff
    4d4e:	ffff                	.insn	2, 0xffff
    4d50:	ffff                	.insn	2, 0xffff
    4d52:	0000                	.insn	2, 0x
    4d54:	e3e3e3e3          	bltu	t2,t5,4b7a <WBishop+0x2ce>
    4d58:	e3e3e3e3          	bltu	t2,t5,4b7e <WBishop+0x2d2>
    4d5c:	e3e3e3e3          	bltu	t2,t5,4b82 <WBishop+0x2d6>
    4d60:	00e3e3e3          	bltu	t2,a4,5566 <WSoldier+0x5b2>
    4d64:	00ff ff00 ffff ffff 	.insn	10, 0xffffffffffffff0000ff
    4d6c:	ffff 
    4d6e:	ffff                	.insn	2, 0xffff
    4d70:	00ff e300 e3e3 e3e3 	.insn	10, 0xe3e3e3e3e3e3e30000ff
    4d78:	e3e3 
    4d7a:	e3e3e3e3          	bltu	t2,t5,4ba0 <WBishop+0x2f4>
    4d7e:	ff00e3e3          	bltu	ra,a6,4d64 <WHorse+0x134>
    4d82:	00ff ffff ffff ffff 	.insn	10, 0xffffffffffffffff00ff
    4d8a:	ffff 
    4d8c:	ffff                	.insn	2, 0xffff
    4d8e:	ffff                	.insn	2, 0xffff
    4d90:	0000                	.insn	2, 0x
    4d92:	e3e3e3e3          	bltu	t2,t5,4bb8 <WBishop+0x30c>
    4d96:	e3e3e3e3          	bltu	t2,t5,4bbc <WBishop+0x310>
    4d9a:	00e3e3e3          	bltu	t2,a4,55a0 <WSoldier+0x5ec>
    4d9e:	ffff                	.insn	2, 0xffff
    4da0:	ffff                	.insn	2, 0xffff
    4da2:	ffff                	.insn	2, 0xffff
    4da4:	ffff                	.insn	2, 0xffff
    4da6:	ffff                	.insn	2, 0xffff
    4da8:	ffff                	.insn	2, 0xffff
    4daa:	ffff                	.insn	2, 0xffff
    4dac:	ffff                	.insn	2, 0xffff
    4dae:	00ff e3e3 e3e3 e3e3 	.insn	10, 0xe3e3e3e3e3e3e3e300ff
    4db6:	e3e3 
    4db8:	00e3e3e3          	bltu	t2,a4,55be <WSoldier+0x60a>
    4dbc:	ffff                	.insn	2, 0xffff
    4dbe:	ffff                	.insn	2, 0xffff
    4dc0:	ffff                	.insn	2, 0xffff
    4dc2:	ffff                	.insn	2, 0xffff
    4dc4:	00ff ffff ffff ffff 	.insn	10, 0x00ffffffffffffff00ff
    4dcc:	00ff 
    4dce:	e300                	.insn	2, 0xe300
    4dd0:	e3e3e3e3          	bltu	t2,t5,4bf6 <WBishop+0x34a>
    4dd4:	e3e3e3e3          	bltu	t2,t5,4bfa <WBishop+0x34e>
    4dd8:	ff00                	.insn	2, 0xff00
    4dda:	ffff                	.insn	2, 0xffff
    4ddc:	ffff                	.insn	2, 0xffff
    4dde:	ffff                	.insn	2, 0xffff
    4de0:	ffff                	.insn	2, 0xffff
    4de2:	0000                	.insn	2, 0x
    4de4:	ffff                	.insn	2, 0xffff
    4de6:	ffff                	.insn	2, 0xffff
    4de8:	ffff                	.insn	2, 0xffff
    4dea:	ffff                	.insn	2, 0xffff
    4dec:	e300                	.insn	2, 0xe300
    4dee:	e3e3e3e3          	bltu	t2,t5,4c14 <WBishop+0x368>
    4df2:	e3e3e3e3          	bltu	t2,t5,4c18 <WBishop+0x36c>
    4df6:	ff00                	.insn	2, 0xff00
    4df8:	ffff                	.insn	2, 0xffff
    4dfa:	ffff                	.insn	2, 0xffff
    4dfc:	ffff                	.insn	2, 0xffff
    4dfe:	00ff 00e3 ffff ffff 	.insn	10, 0xffffffffffff00e300ff
    4e06:	ffff 
    4e08:	ffff                	.insn	2, 0xffff
    4e0a:	e300                	.insn	2, 0xe300
    4e0c:	e3e3e3e3          	bltu	t2,t5,4c32 <WHorse+0x2>
    4e10:	00e3e3e3          	bltu	t2,a4,5616 <WSoldier+0x662>
    4e14:	00ff ff00 ffff ffff 	.insn	10, 0xe300ffffffffff0000ff
    4e1c:	e300 
    4e1e:	ffff00e3          	beq	t5,t6,4dfe <WHorse+0x1ce>
    4e22:	ffff                	.insn	2, 0xffff
    4e24:	ffff                	.insn	2, 0xffff
    4e26:	ffff                	.insn	2, 0xffff
    4e28:	e300                	.insn	2, 0xe300
    4e2a:	e3e3e3e3          	bltu	t2,t5,4c50 <WHorse+0x20>
    4e2e:	00e3e3e3          	bltu	t2,a4,5634 <WSoldier+0x680>
    4e32:	00ff ff00 ffff 00ff 	.insn	10, 0xe3e300ffffffff0000ff
    4e3a:	e3e3 
    4e3c:	ffff00e3          	beq	t5,t6,4e1c <WHorse+0x1ec>
    4e40:	ffff                	.insn	2, 0xffff
    4e42:	ffff                	.insn	2, 0xffff
    4e44:	ffff                	.insn	2, 0xffff
    4e46:	0000                	.insn	2, 0x
    4e48:	e3e3e3e3          	bltu	t2,t5,4c6e <WHorse+0x3e>
    4e4c:	00e3e3e3          	bltu	t2,a4,5652 <WSoldier+0x69e>
    4e50:	ffff                	.insn	2, 0xffff
    4e52:	00ff ffff e300 e3e3 	.insn	10, 0xe3e3e300ffff00ff
    4e5a:	0000 
    4e5c:	ffff                	.insn	2, 0xffff
    4e5e:	ffff                	.insn	2, 0xffff
    4e60:	ffff                	.insn	2, 0xffff
    4e62:	ffff                	.insn	2, 0xffff
    4e64:	00ff e3e3 e3e3 e3e3 	.insn	10, 0xe3e3e3e3e3e3e3e300ff
    4e6c:	e3e3 
    4e6e:	ff00                	.insn	2, 0xff00
    4e70:	0000                	.insn	2, 0x
    4e72:	00ff e3e3 00e3 ff00 	.insn	10, 0xffffff0000e3e3e300ff
    4e7a:	ffff 
    4e7c:	ffff                	.insn	2, 0xffff
    4e7e:	ffff                	.insn	2, 0xffff
    4e80:	ffff                	.insn	2, 0xffff
    4e82:	00ff e3e3 e3e3 e3e3 	.insn	10, 0xe3e3e3e3e3e3e3e300ff
    4e8a:	e3e3 
    4e8c:	000000e3          	beqz	zero,568c <WSoldier+0x6d8>
    4e90:	e300                	.insn	2, 0xe300
    4e92:	0000e3e3          	bltu	ra,zero,5698 <WSoldier+0x6e4>
    4e96:	ffff                	.insn	2, 0xffff
    4e98:	ffff                	.insn	2, 0xffff
    4e9a:	ffff                	.insn	2, 0xffff
    4e9c:	ffff                	.insn	2, 0xffff
    4e9e:	ffff                	.insn	2, 0xffff
    4ea0:	00ff e3e3 e3e3 e3e3 	.insn	10, 0xe3e3e3e3e3e3e3e300ff
    4ea8:	e3e3 
    4eaa:	e3e3e3e3          	bltu	t2,t5,4cd0 <WHorse+0xa0>
    4eae:	00e3e3e3          	bltu	t2,a4,56b4 <WSoldier+0x700>
    4eb2:	ff00                	.insn	2, 0xff00
    4eb4:	ffff                	.insn	2, 0xffff
    4eb6:	ffff                	.insn	2, 0xffff
    4eb8:	ffff                	.insn	2, 0xffff
    4eba:	ffff                	.insn	2, 0xffff
    4ebc:	ffff                	.insn	2, 0xffff
    4ebe:	00ff e3e3 e3e3 e3e3 	.insn	10, 0xe3e3e3e3e3e3e3e300ff
    4ec6:	e3e3 
    4ec8:	e3e3e3e3          	bltu	t2,t5,4cee <WHorse+0xbe>
    4ecc:	0000e3e3          	bltu	ra,zero,56d2 <WSoldier+0x71e>
    4ed0:	ffff                	.insn	2, 0xffff
    4ed2:	ffff                	.insn	2, 0xffff
    4ed4:	ffff                	.insn	2, 0xffff
    4ed6:	ffff                	.insn	2, 0xffff
    4ed8:	ffff                	.insn	2, 0xffff
    4eda:	ffff                	.insn	2, 0xffff
    4edc:	00ff e3e3 e3e3 e3e3 	.insn	10, 0xe3e3e3e3e3e3e3e300ff
    4ee4:	e3e3 
    4ee6:	e3e3e3e3          	bltu	t2,t5,4d0c <WHorse+0xdc>
    4eea:	ff00e3e3          	bltu	ra,a6,4ed0 <WHorse+0x2a0>
    4eee:	ffff                	.insn	2, 0xffff
    4ef0:	ffff                	.insn	2, 0xffff
    4ef2:	ffff                	.insn	2, 0xffff
    4ef4:	ffff                	.insn	2, 0xffff
    4ef6:	ffff                	.insn	2, 0xffff
    4ef8:	ffff                	.insn	2, 0xffff
    4efa:	00ff e3e3 e3e3 e3e3 	.insn	10, 0xe3e3e3e3e3e3e3e300ff
    4f02:	e3e3 
    4f04:	e3e3e3e3          	bltu	t2,t5,4d2a <WHorse+0xfa>
    4f08:	ff00e3e3          	bltu	ra,a6,4eee <WHorse+0x2be>
    4f0c:	ffff                	.insn	2, 0xffff
    4f0e:	ffff                	.insn	2, 0xffff
    4f10:	ffff                	.insn	2, 0xffff
    4f12:	ffff                	.insn	2, 0xffff
    4f14:	ffff                	.insn	2, 0xffff
    4f16:	ffff                	.insn	2, 0xffff
    4f18:	00ff e3e3 e3e3 e3e3 	.insn	10, 0xe3e3e3e3e3e3e3e300ff
    4f20:	e3e3 
    4f22:	e3e3e3e3          	bltu	t2,t5,4d48 <WHorse+0x118>
    4f26:	0000e3e3          	bltu	ra,zero,572c <WSoldier+0x778>
	...
    4f36:	0000                	.insn	2, 0x
    4f38:	e3e3e3e3          	bltu	t2,t5,4d5e <WHorse+0x12e>
    4f3c:	e3e3e3e3          	bltu	t2,t5,4d62 <WHorse+0x132>
    4f40:	e3e3e3e3          	bltu	t2,t5,4d66 <WHorse+0x136>
    4f44:	e3e3e3e3          	bltu	t2,t5,4d6a <WHorse+0x13a>
    4f48:	e3e3e3e3          	bltu	t2,t5,4d6e <WHorse+0x13e>
    4f4c:	e3e3e3e3          	bltu	t2,t5,4d72 <WHorse+0x142>
    4f50:	e3e3e3e3          	bltu	t2,t5,4d76 <WHorse+0x146>
    4f54:	e3e3e3e3          	bltu	t2,t5,4d7a <WHorse+0x14a>
    4f58:	e3e3e3e3          	bltu	t2,t5,4d7e <WHorse+0x14e>
    4f5c:	e3e3e3e3          	bltu	t2,t5,4d82 <WHorse+0x152>
    4f60:	e3e3e3e3          	bltu	t2,t5,4d86 <WHorse+0x156>
    4f64:	e3e3e3e3          	bltu	t2,t5,4d8a <WHorse+0x15a>
    4f68:	e3e3e3e3          	bltu	t2,t5,4d8e <WHorse+0x15e>
    4f6c:	e3e3e3e3          	bltu	t2,t5,4d92 <WHorse+0x162>
    4f70:	e3e3e3e3          	bltu	t2,t5,4d96 <WHorse+0x166>
    4f74:	e3e3e3e3          	bltu	t2,t5,4d9a <WHorse+0x16a>
    4f78:	e3e3e3e3          	bltu	t2,t5,4d9e <WHorse+0x16e>
    4f7c:	e3e3e3e3          	bltu	t2,t5,4da2 <WHorse+0x172>
    4f80:	e3e3e3e3          	bltu	t2,t5,4da6 <WHorse+0x176>
    4f84:	e3e3e3e3          	bltu	t2,t5,4daa <WHorse+0x17a>
    4f88:	e3e3e3e3          	bltu	t2,t5,4dae <WHorse+0x17e>
    4f8c:	e3e3e3e3          	bltu	t2,t5,4db2 <WHorse+0x182>
    4f90:	e3e3e3e3          	bltu	t2,t5,4db6 <WHorse+0x186>
    4f94:	e3e3e3e3          	bltu	t2,t5,4dba <WHorse+0x18a>
    4f98:	e3e3e3e3          	bltu	t2,t5,4dbe <WHorse+0x18e>
    4f9c:	e3e3e3e3          	bltu	t2,t5,4dc2 <WHorse+0x192>
    4fa0:	e3e3e3e3          	bltu	t2,t5,4dc6 <WHorse+0x196>
    4fa4:	e3e3e3e3          	bltu	t2,t5,4dca <WHorse+0x19a>
    4fa8:	e3e3e3e3          	bltu	t2,t5,4dce <WHorse+0x19e>
    4fac:	e3e3e3e3          	bltu	t2,t5,4dd2 <WHorse+0x1a2>
    4fb0:	e3e3e3e3          	bltu	t2,t5,4dd6 <WHorse+0x1a6>

00004fb4 <WSoldier>:
    4fb4:	e3e3e3e3          	bltu	t2,t5,4dda <WHorse+0x1aa>
    4fb8:	e3e3e3e3          	bltu	t2,t5,4dde <WHorse+0x1ae>
    4fbc:	e3e3e3e3          	bltu	t2,t5,4de2 <WHorse+0x1b2>
    4fc0:	e3e3e3e3          	bltu	t2,t5,4de6 <WHorse+0x1b6>
    4fc4:	e3e3e3e3          	bltu	t2,t5,4dea <WHorse+0x1ba>
    4fc8:	e3e3e3e3          	bltu	t2,t5,4dee <WHorse+0x1be>
    4fcc:	e3e3e3e3          	bltu	t2,t5,4df2 <WHorse+0x1c2>
    4fd0:	e3e3e3e3          	bltu	t2,t5,4df6 <WHorse+0x1c6>
    4fd4:	e3e3e3e3          	bltu	t2,t5,4dfa <WHorse+0x1ca>
    4fd8:	e3e3e3e3          	bltu	t2,t5,4dfe <WHorse+0x1ce>
    4fdc:	e3e3e3e3          	bltu	t2,t5,4e02 <WHorse+0x1d2>
    4fe0:	e3e3e3e3          	bltu	t2,t5,4e06 <WHorse+0x1d6>
    4fe4:	e3e3e3e3          	bltu	t2,t5,4e0a <WHorse+0x1da>
    4fe8:	e3e3e3e3          	bltu	t2,t5,4e0e <WHorse+0x1de>
    4fec:	e3e3e3e3          	bltu	t2,t5,4e12 <WHorse+0x1e2>
    4ff0:	e3e3e3e3          	bltu	t2,t5,4e16 <WHorse+0x1e6>
    4ff4:	e3e3e3e3          	bltu	t2,t5,4e1a <WHorse+0x1ea>
    4ff8:	e3e3e3e3          	bltu	t2,t5,4e1e <WHorse+0x1ee>
    4ffc:	e3e3e3e3          	bltu	t2,t5,4e22 <WHorse+0x1f2>
    5000:	e3e3e3e3          	bltu	t2,t5,4e26 <WHorse+0x1f6>
    5004:	e3e3e3e3          	bltu	t2,t5,4e2a <WHorse+0x1fa>
    5008:	e3e3e3e3          	bltu	t2,t5,4e2e <WHorse+0x1fe>
    500c:	e3e3e3e3          	bltu	t2,t5,4e32 <WHorse+0x202>
    5010:	e3e3e3e3          	bltu	t2,t5,4e36 <WHorse+0x206>
    5014:	e3e3e3e3          	bltu	t2,t5,4e3a <WHorse+0x20a>
    5018:	e3e3e3e3          	bltu	t2,t5,4e3e <WHorse+0x20e>
    501c:	e3e3e3e3          	bltu	t2,t5,4e42 <WHorse+0x212>
    5020:	e3e3e3e3          	bltu	t2,t5,4e46 <WHorse+0x216>
    5024:	e3e3e3e3          	bltu	t2,t5,4e4a <WHorse+0x21a>
    5028:	e3e3e3e3          	bltu	t2,t5,4e4e <WHorse+0x21e>
    502c:	e3e3e3e3          	bltu	t2,t5,4e52 <WHorse+0x222>
    5030:	e3e3e3e3          	bltu	t2,t5,4e56 <WHorse+0x226>
    5034:	e3e3e3e3          	bltu	t2,t5,4e5a <WHorse+0x22a>
    5038:	e3e3e3e3          	bltu	t2,t5,4e5e <WHorse+0x22e>
    503c:	e3e3e3e3          	bltu	t2,t5,4e62 <WHorse+0x232>
    5040:	e3e3e3e3          	bltu	t2,t5,4e66 <WHorse+0x236>
    5044:	e3e3e3e3          	bltu	t2,t5,4e6a <WHorse+0x23a>
    5048:	e3e3e3e3          	bltu	t2,t5,4e6e <WHorse+0x23e>
    504c:	e3e3e3e3          	bltu	t2,t5,4e72 <WHorse+0x242>
    5050:	e3e3e3e3          	bltu	t2,t5,4e76 <WHorse+0x246>
    5054:	00e3e3e3          	bltu	t2,a4,585a <WSoldier+0x8a6>
    5058:	0000                	.insn	2, 0x
    505a:	e3e3e3e3          	bltu	t2,t5,4e80 <WHorse+0x250>
    505e:	e3e3e3e3          	bltu	t2,t5,4e84 <WHorse+0x254>
    5062:	e3e3e3e3          	bltu	t2,t5,4e88 <WHorse+0x258>
    5066:	e3e3e3e3          	bltu	t2,t5,4e8c <WHorse+0x25c>
    506a:	e3e3e3e3          	bltu	t2,t5,4e90 <WHorse+0x260>
    506e:	e3e3e3e3          	bltu	t2,t5,4e94 <WHorse+0x264>
    5072:	0000e3e3          	bltu	ra,zero,5878 <WSoldier+0x8c4>
    5076:	00ff e300 e3e3 e3e3 	.insn	10, 0xe3e3e3e3e3e3e30000ff
    507e:	e3e3 
    5080:	e3e3e3e3          	bltu	t2,t5,4ea6 <WHorse+0x276>
    5084:	e3e3e3e3          	bltu	t2,t5,4eaa <WHorse+0x27a>
    5088:	e3e3e3e3          	bltu	t2,t5,4eae <WHorse+0x27e>
    508c:	e3e3e3e3          	bltu	t2,t5,4eb2 <WHorse+0x282>
    5090:	ff0000e3          	beq	zero,a6,5070 <WSoldier+0xbc>
    5094:	ffff                	.insn	2, 0xffff
    5096:	0000                	.insn	2, 0x
    5098:	e3e3e3e3          	bltu	t2,t5,4ebe <WHorse+0x28e>
    509c:	e3e3e3e3          	bltu	t2,t5,4ec2 <WHorse+0x292>
    50a0:	e3e3e3e3          	bltu	t2,t5,4ec6 <WHorse+0x296>
    50a4:	e3e3e3e3          	bltu	t2,t5,4eca <WHorse+0x29a>
    50a8:	e3e3e3e3          	bltu	t2,t5,4ece <WHorse+0x29e>
    50ac:	00e3e3e3          	bltu	t2,a4,58b2 <WSoldier+0x8fe>
    50b0:	ffff                	.insn	2, 0xffff
    50b2:	ffff                	.insn	2, 0xffff
    50b4:	00ff e3e3 e3e3 e3e3 	.insn	10, 0xe3e3e3e3e3e3e3e300ff
    50bc:	e3e3 
    50be:	e3e3e3e3          	bltu	t2,t5,4ee4 <WHorse+0x2b4>
    50c2:	e3e3e3e3          	bltu	t2,t5,4ee8 <WHorse+0x2b8>
    50c6:	e3e3e3e3          	bltu	t2,t5,4eec <WHorse+0x2bc>
    50ca:	00e3e3e3          	bltu	t2,a4,58d0 <WSoldier+0x91c>
    50ce:	ff00                	.insn	2, 0xff00
    50d0:	ffff                	.insn	2, 0xffff
    50d2:	0000                	.insn	2, 0x
    50d4:	e3e3e3e3          	bltu	t2,t5,4efa <WHorse+0x2ca>
    50d8:	e3e3e3e3          	bltu	t2,t5,4efe <WHorse+0x2ce>
    50dc:	e3e3e3e3          	bltu	t2,t5,4f02 <WHorse+0x2d2>
    50e0:	e3e3e3e3          	bltu	t2,t5,4f06 <WHorse+0x2d6>
    50e4:	e3e3e3e3          	bltu	t2,t5,4f0a <WHorse+0x2da>
    50e8:	e3e3e3e3          	bltu	t2,t5,4f0e <WHorse+0x2de>
    50ec:	ff00                	.insn	2, 0xff00
    50ee:	ffff                	.insn	2, 0xffff
    50f0:	e300                	.insn	2, 0xe300
    50f2:	e3e3e3e3          	bltu	t2,t5,4f18 <WHorse+0x2e8>
    50f6:	e3e3e3e3          	bltu	t2,t5,4f1c <WHorse+0x2ec>
    50fa:	e3e3e3e3          	bltu	t2,t5,4f20 <WHorse+0x2f0>
    50fe:	e3e3e3e3          	bltu	t2,t5,4f24 <WHorse+0x2f4>
    5102:	e3e3e3e3          	bltu	t2,t5,4f28 <WHorse+0x2f8>
    5106:	00e3e3e3          	bltu	t2,a4,590c <WSoldier+0x958>
    510a:	ff00                	.insn	2, 0xff00
    510c:	ffff                	.insn	2, 0xffff
    510e:	0000                	.insn	2, 0x
    5110:	e3e3e3e3          	bltu	t2,t5,4f36 <WHorse+0x306>
    5114:	e3e3e3e3          	bltu	t2,t5,4f3a <WHorse+0x30a>
    5118:	e3e3e3e3          	bltu	t2,t5,4f3e <WHorse+0x30e>
    511c:	e3e3e3e3          	bltu	t2,t5,4f42 <WHorse+0x312>
    5120:	e3e3e3e3          	bltu	t2,t5,4f46 <WHorse+0x316>
    5124:	0000e3e3          	bltu	ra,zero,592a <WSoldier+0x976>
    5128:	ffff                	.insn	2, 0xffff
    512a:	ffff                	.insn	2, 0xffff
    512c:	00ff e300 e3e3 e3e3 	.insn	10, 0xe3e3e3e3e3e3e30000ff
    5134:	e3e3 
    5136:	e3e3e3e3          	bltu	t2,t5,4f5c <WHorse+0x32c>
    513a:	e3e3e3e3          	bltu	t2,t5,4f60 <WHorse+0x330>
    513e:	e3e3e3e3          	bltu	t2,t5,4f64 <WHorse+0x334>
    5142:	ff00e3e3          	bltu	ra,a6,5128 <WSoldier+0x174>
    5146:	ffff                	.insn	2, 0xffff
    5148:	ffff                	.insn	2, 0xffff
    514a:	ffff                	.insn	2, 0xffff
    514c:	e300                	.insn	2, 0xe300
    514e:	e3e3e3e3          	bltu	t2,t5,4f74 <WHorse+0x344>
    5152:	e3e3e3e3          	bltu	t2,t5,4f78 <WHorse+0x348>
    5156:	e3e3e3e3          	bltu	t2,t5,4f7c <WHorse+0x34c>
    515a:	e3e3e3e3          	bltu	t2,t5,4f80 <WHorse+0x350>
    515e:	e3e3e3e3          	bltu	t2,t5,4f84 <WHorse+0x354>
    5162:	ff00                	.insn	2, 0xff00
    5164:	ffff                	.insn	2, 0xffff
    5166:	ffff                	.insn	2, 0xffff
    5168:	ffff                	.insn	2, 0xffff
    516a:	e300                	.insn	2, 0xe300
    516c:	e3e3e3e3          	bltu	t2,t5,4f92 <WHorse+0x362>
    5170:	e3e3e3e3          	bltu	t2,t5,4f96 <WHorse+0x366>
    5174:	e3e3e3e3          	bltu	t2,t5,4f9a <WHorse+0x36a>
    5178:	e3e3e3e3          	bltu	t2,t5,4f9e <WHorse+0x36e>
    517c:	e3e3e3e3          	bltu	t2,t5,4fa2 <WHorse+0x372>
    5180:	ff00                	.insn	2, 0xff00
    5182:	ffff                	.insn	2, 0xffff
    5184:	ffff                	.insn	2, 0xffff
    5186:	ffff                	.insn	2, 0xffff
    5188:	e300                	.insn	2, 0xe300
    518a:	e3e3e3e3          	bltu	t2,t5,4fb0 <WHorse+0x380>
    518e:	e3e3e3e3          	bltu	t2,t5,4fb4 <WSoldier>
    5192:	e3e3e3e3          	bltu	t2,t5,4fb8 <WSoldier+0x4>
    5196:	e3e3e3e3          	bltu	t2,t5,4fbc <WSoldier+0x8>
    519a:	e3e3e3e3          	bltu	t2,t5,4fc0 <WSoldier+0xc>
    519e:	0000                	.insn	2, 0x
    51a0:	ffff                	.insn	2, 0xffff
    51a2:	ffff                	.insn	2, 0xffff
    51a4:	00ff e300 e3e3 e3e3 	.insn	10, 0xe3e3e3e3e3e3e30000ff
    51ac:	e3e3 
    51ae:	e3e3e3e3          	bltu	t2,t5,4fd4 <WSoldier+0x20>
    51b2:	e3e3e3e3          	bltu	t2,t5,4fd8 <WSoldier+0x24>
    51b6:	e3e3e3e3          	bltu	t2,t5,4fdc <WSoldier+0x28>
    51ba:	00e3e3e3          	bltu	t2,a4,59c0 <WSoldier+0xa0c>
    51be:	ffff                	.insn	2, 0xffff
    51c0:	ffff                	.insn	2, 0xffff
    51c2:	00ff e3e3 e3e3 e3e3 	.insn	10, 0xe3e3e3e3e3e3e3e300ff
    51ca:	e3e3 
    51cc:	e3e3e3e3          	bltu	t2,t5,4ff2 <WSoldier+0x3e>
    51d0:	e3e3e3e3          	bltu	t2,t5,4ff6 <WSoldier+0x42>
    51d4:	e3e3e3e3          	bltu	t2,t5,4ffa <WSoldier+0x46>
    51d8:	0000e3e3          	bltu	ra,zero,59de <WSoldier+0xa2a>
    51dc:	ffff                	.insn	2, 0xffff
    51de:	ffff                	.insn	2, 0xffff
    51e0:	00ff e300 e3e3 e3e3 	.insn	10, 0xe3e3e3e3e3e3e30000ff
    51e8:	e3e3 
    51ea:	e3e3e3e3          	bltu	t2,t5,5010 <WSoldier+0x5c>
    51ee:	e3e3e3e3          	bltu	t2,t5,5014 <WSoldier+0x60>
    51f2:	e3e3e3e3          	bltu	t2,t5,5018 <WSoldier+0x64>
    51f6:	ff0000e3          	beq	zero,a6,51d6 <WSoldier+0x222>
    51fa:	ffff                	.insn	2, 0xffff
    51fc:	ffff                	.insn	2, 0xffff
    51fe:	ffff                	.insn	2, 0xffff
    5200:	0000                	.insn	2, 0x
    5202:	e3e3e3e3          	bltu	t2,t5,5028 <WSoldier+0x74>
    5206:	e3e3e3e3          	bltu	t2,t5,502c <WSoldier+0x78>
    520a:	e3e3e3e3          	bltu	t2,t5,5030 <WSoldier+0x7c>
    520e:	e3e3e3e3          	bltu	t2,t5,5034 <WSoldier+0x80>
    5212:	0000e3e3          	bltu	ra,zero,5a18 <WSoldier+0xa64>
    5216:	ffff                	.insn	2, 0xffff
    5218:	ffff                	.insn	2, 0xffff
    521a:	ffff                	.insn	2, 0xffff
    521c:	ffff                	.insn	2, 0xffff
    521e:	00ff e300 e3e3 e3e3 	.insn	10, 0xe3e3e3e3e3e3e30000ff
    5226:	e3e3 
    5228:	e3e3e3e3          	bltu	t2,t5,504e <WSoldier+0x9a>
    522c:	e3e3e3e3          	bltu	t2,t5,5052 <WSoldier+0x9e>
    5230:	ff00e3e3          	bltu	ra,a6,5216 <WSoldier+0x262>
    5234:	ffff                	.insn	2, 0xffff
    5236:	ffff                	.insn	2, 0xffff
    5238:	ffff                	.insn	2, 0xffff
    523a:	ffff                	.insn	2, 0xffff
    523c:	ffff                	.insn	2, 0xffff
    523e:	e300                	.insn	2, 0xe300
    5240:	e3e3e3e3          	bltu	t2,t5,5066 <WSoldier+0xb2>
    5244:	e3e3e3e3          	bltu	t2,t5,506a <WSoldier+0xb6>
    5248:	e3e3e3e3          	bltu	t2,t5,506e <WSoldier+0xba>
    524c:	00e3e3e3          	bltu	t2,a4,5a52 <WSoldier+0xa9e>
    5250:	ff00                	.insn	2, 0xff00
    5252:	ffff                	.insn	2, 0xffff
    5254:	ffff                	.insn	2, 0xffff
    5256:	ffff                	.insn	2, 0xffff
    5258:	ffff                	.insn	2, 0xffff
    525a:	ffff                	.insn	2, 0xffff
    525c:	0000                	.insn	2, 0x
    525e:	e3e3e3e3          	bltu	t2,t5,5084 <WSoldier+0xd0>
    5262:	e3e3e3e3          	bltu	t2,t5,5088 <WSoldier+0xd4>
    5266:	e3e3e3e3          	bltu	t2,t5,508c <WSoldier+0xd8>
    526a:	00e3e3e3          	bltu	t2,a4,5a70 <WSoldier+0xabc>
    526e:	ffff                	.insn	2, 0xffff
    5270:	ffff                	.insn	2, 0xffff
    5272:	ffff                	.insn	2, 0xffff
    5274:	ffff                	.insn	2, 0xffff
    5276:	ffff                	.insn	2, 0xffff
    5278:	ffff                	.insn	2, 0xffff
    527a:	00ff e3e3 e3e3 e3e3 	.insn	10, 0xe3e3e3e3e3e3e3e300ff
    5282:	e3e3 
    5284:	e3e3e3e3          	bltu	t2,t5,50aa <WSoldier+0xf6>
    5288:	00e3e3e3          	bltu	t2,a4,5a8e <WSoldier+0xada>
    528c:	ffff                	.insn	2, 0xffff
    528e:	ffff                	.insn	2, 0xffff
    5290:	ffff                	.insn	2, 0xffff
    5292:	ffff                	.insn	2, 0xffff
    5294:	ffff                	.insn	2, 0xffff
    5296:	ffff                	.insn	2, 0xffff
    5298:	00ff e3e3 e3e3 e3e3 	.insn	10, 0xe3e3e3e3e3e3e3e300ff
    52a0:	e3e3 
    52a2:	e3e3e3e3          	bltu	t2,t5,50c8 <WSoldier+0x114>
    52a6:	00e3e3e3          	bltu	t2,a4,5aac <WSoldier+0xaf8>
    52aa:	ffff                	.insn	2, 0xffff
    52ac:	ffff                	.insn	2, 0xffff
    52ae:	ffff                	.insn	2, 0xffff
    52b0:	ffff                	.insn	2, 0xffff
    52b2:	ffff                	.insn	2, 0xffff
    52b4:	ffff                	.insn	2, 0xffff
    52b6:	00ff e3e3 e3e3 e3e3 	.insn	10, 0xe3e3e3e3e3e3e3e300ff
    52be:	e3e3 
    52c0:	e3e3e3e3          	bltu	t2,t5,50e6 <WSoldier+0x132>
    52c4:	00e3e3e3          	bltu	t2,a4,5aca <WSoldier+0xb16>
	...
    52d4:	0000                	.insn	2, 0x
    52d6:	e3e3e3e3          	bltu	t2,t5,50fc <WSoldier+0x148>
    52da:	e3e3e3e3          	bltu	t2,t5,5100 <WSoldier+0x14c>
    52de:	e3e3e3e3          	bltu	t2,t5,5104 <WSoldier+0x150>
    52e2:	e3e3e3e3          	bltu	t2,t5,5108 <WSoldier+0x154>
    52e6:	e3e3e3e3          	bltu	t2,t5,510c <WSoldier+0x158>
    52ea:	e3e3e3e3          	bltu	t2,t5,5110 <WSoldier+0x15c>
    52ee:	e3e3e3e3          	bltu	t2,t5,5114 <WSoldier+0x160>
    52f2:	e3e3e3e3          	bltu	t2,t5,5118 <WSoldier+0x164>
    52f6:	e3e3e3e3          	bltu	t2,t5,511c <WSoldier+0x168>
    52fa:	e3e3e3e3          	bltu	t2,t5,5120 <WSoldier+0x16c>
    52fe:	e3e3e3e3          	bltu	t2,t5,5124 <WSoldier+0x170>
    5302:	e3e3e3e3          	bltu	t2,t5,5128 <WSoldier+0x174>
    5306:	e3e3e3e3          	bltu	t2,t5,512c <WSoldier+0x178>
    530a:	e3e3e3e3          	bltu	t2,t5,5130 <WSoldier+0x17c>
    530e:	e3e3e3e3          	bltu	t2,t5,5134 <WSoldier+0x180>
    5312:	e3e3e3e3          	bltu	t2,t5,5138 <WSoldier+0x184>
    5316:	e3e3e3e3          	bltu	t2,t5,513c <WSoldier+0x188>
    531a:	e3e3e3e3          	bltu	t2,t5,5140 <WSoldier+0x18c>
    531e:	e3e3e3e3          	bltu	t2,t5,5144 <WSoldier+0x190>
    5322:	e3e3e3e3          	bltu	t2,t5,5148 <WSoldier+0x194>
    5326:	e3e3e3e3          	bltu	t2,t5,514c <WSoldier+0x198>
    532a:	e3e3e3e3          	bltu	t2,t5,5150 <WSoldier+0x19c>
    532e:	e3e3e3e3          	bltu	t2,t5,5154 <WSoldier+0x1a0>
    5332:	e3e3e3e3          	bltu	t2,t5,5158 <WSoldier+0x1a4>
    5336:	Address 0x5336 is out of bounds.


Disassembly of section .rodata.str1.4:

00005338 <.rodata.str1.4>:
    5338:	6170                	.insn	2, 0x6170
    533a:	00006e77          	.insn	4, 0x6e77
    533e:	0000                	.insn	2, 0x
    5340:	74696857          	.insn	4, 0x74696857
    5344:	0065                	.insn	2, 0x0065
    5346:	0000                	.insn	2, 0x
    5348:	6f72                	.insn	2, 0x6f72
    534a:	00006b6f          	jal	s6,b34a <WSoldier+0x6396>
    534e:	0000                	.insn	2, 0x
    5350:	6c42                	.insn	2, 0x6c42
    5352:	6361                	.insn	2, 0x6361
    5354:	0000006b          	.insn	4, 0x006b
    5358:	7571                	.insn	2, 0x7571
    535a:	6565                	.insn	2, 0x6565
    535c:	006e                	.insn	2, 0x006e
    535e:	0000                	.insn	2, 0x
    5360:	67696e6b          	.insn	4, 0x67696e6b
    5364:	7468                	.insn	2, 0x7468
    5366:	0000                	.insn	2, 0x
    5368:	6962                	.insn	2, 0x6962
    536a:	706f6873          	csrrsi	a6,0x706,30
    536e:	0000                	.insn	2, 0x
    5370:	676e696b          	.insn	4, 0x676e696b
    5374:	0000                	.insn	2, 0x
    5376:	0000                	.insn	2, 0x
    5378:	7320                	.insn	2, 0x7320
    537a:	6c65                	.insn	2, 0x6c65
    537c:	6365                	.insn	2, 0x6365
    537e:	6574                	.insn	2, 0x6574
    5380:	2064                	.insn	2, 0x2064
    5382:	7461                	.insn	2, 0x7461
    5384:	0020                	.insn	2, 0x0020
    5386:	0000                	.insn	2, 0x
    5388:	74696857          	.insn	4, 0x74696857
    538c:	2065                	.insn	2, 0x2065
    538e:	676e696b          	.insn	4, 0x676e696b
    5392:	6920                	.insn	2, 0x6920
    5394:	6e692073          	csrs	0x6e6,s2
    5398:	6320                	.insn	2, 0x6320
    539a:	6568                	.insn	2, 0x6568
    539c:	0a216b63          	bltu	sp,sp,5452 <WSoldier+0x49e>
    53a0:	0000                	.insn	2, 0x
    53a2:	0000                	.insn	2, 0x
    53a4:	6c42                	.insn	2, 0x6c42
    53a6:	6361                	.insn	2, 0x6361
    53a8:	696b206b          	.insn	4, 0x696b206b
    53ac:	676e                	.insn	2, 0x676e
    53ae:	6920                	.insn	2, 0x6920
    53b0:	6e692073          	csrs	0x6e6,s2
    53b4:	6320                	.insn	2, 0x6320
    53b6:	6568                	.insn	2, 0x6568
    53b8:	0a216b63          	bltu	sp,sp,546e <WSoldier+0x4ba>
    53bc:	0000                	.insn	2, 0x
    53be:	0000                	.insn	2, 0x
    53c0:	6c42                	.insn	2, 0x6c42
    53c2:	6361                	.insn	2, 0x6361
    53c4:	6977206b          	.insn	4, 0x6977206b
    53c8:	736e                	.insn	2, 0x736e
    53ca:	6220                	.insn	2, 0x6220
    53cc:	2079                	.insn	2, 0x2079
    53ce:	63656863          	bltu	a0,s6,59fe <WSoldier+0xa4a>
    53d2:	74616d6b          	.insn	4, 0x74616d6b
    53d6:	2165                	.insn	2, 0x2165
    53d8:	000a                	.insn	2, 0x000a
    53da:	0000                	.insn	2, 0x
    53dc:	74696857          	.insn	4, 0x74696857
    53e0:	2065                	.insn	2, 0x2065
    53e2:	736e6977          	.insn	4, 0x736e6977
    53e6:	6220                	.insn	2, 0x6220
    53e8:	2079                	.insn	2, 0x2079
    53ea:	63656863          	bltu	a0,s6,5a1a <WSoldier+0xa66>
    53ee:	74616d6b          	.insn	4, 0x74616d6b
    53f2:	2165                	.insn	2, 0x2165
    53f4:	000a                	.insn	2, 0x000a
    53f6:	0000                	.insn	2, 0x
    53f8:	5b0a                	.insn	2, 0x5b0a
    53fa:	5845                	.insn	2, 0x5845
    53fc:	54504543          	.insn	4, 0x54504543
    5400:	4f49                	.insn	2, 0x4f49
    5402:	5d4e                	.insn	2, 0x5d4e
    5404:	4920                	.insn	2, 0x4920
    5406:	736e                	.insn	2, 0x736e
    5408:	7274                	.insn	2, 0x7274
    540a:	6375                	.insn	2, 0x6375
    540c:	6974                	.insn	2, 0x6974
    540e:	61206e6f          	jal	t3,ba20 <WSoldier+0x6a6c>
    5412:	6464                	.insn	2, 0x6464
    5414:	6572                	.insn	2, 0x6572
    5416:	6d207373          	csrrci	t1,0x6d2,0
    541a:	7369                	.insn	2, 0x7369
    541c:	6c61                	.insn	2, 0x6c61
    541e:	6769                	.insn	2, 0x6769
    5420:	6d6e                	.insn	2, 0x6d6e
    5422:	6e65                	.insn	2, 0x6e65
    5424:	2e74                	.insn	2, 0x2e74
    5426:	0020                	.insn	2, 0x0020
    5428:	5b0a                	.insn	2, 0x5b0a
    542a:	5845                	.insn	2, 0x5845
    542c:	54504543          	.insn	4, 0x54504543
    5430:	4f49                	.insn	2, 0x4f49
    5432:	5d4e                	.insn	2, 0x5d4e
    5434:	4920                	.insn	2, 0x4920
    5436:	6c6c                	.insn	2, 0x6c6c
    5438:	6765                	.insn	2, 0x6765
    543a:	6c61                	.insn	2, 0x6c61
    543c:	6920                	.insn	2, 0x6920
    543e:	736e                	.insn	2, 0x736e
    5440:	7274                	.insn	2, 0x7274
    5442:	6375                	.insn	2, 0x6375
    5444:	6974                	.insn	2, 0x6974
    5446:	202e6e6f          	jal	t3,eb648 <WSoldier+0xe6694>
    544a:	0000                	.insn	2, 0x
    544c:	5b0a                	.insn	2, 0x5b0a
    544e:	5845                	.insn	2, 0x5845
    5450:	54504543          	.insn	4, 0x54504543
    5454:	4f49                	.insn	2, 0x4f49
    5456:	5d4e                	.insn	2, 0x5d4e
    5458:	5520                	.insn	2, 0x5520
    545a:	6b6e                	.insn	2, 0x6b6e
    545c:	6f6e                	.insn	2, 0x6f6e
    545e:	65206e77          	.insn	4, 0x65206e77
    5462:	7272                	.insn	2, 0x7272
    5464:	202e726f          	jal	tp,ec666 <WSoldier+0xe76b2>
    5468:	0000                	.insn	2, 0x
    546a:	0000                	.insn	2, 0x
    546c:	7845                	.insn	2, 0x7845
    546e:	74706563          	bltu	zero,t2,5bb8 <WSoldier+0xc04>
    5472:	6f69                	.insn	2, 0x6f69
    5474:	206e                	.insn	2, 0x206e
    5476:	6441                	.insn	2, 0x6441
    5478:	7264                	.insn	2, 0x7264
    547a:	7365                	.insn	2, 0x7365
    547c:	00203a73          	csrrc	s4,frm,zero

Disassembly of section .comment:

00000000 <.comment>:
   0:	3a434347          	.insn	4, 0x3a434347
   4:	2820                	.insn	2, 0x2820
   6:	2029                	.insn	2, 0x2029
   8:	3331                	.insn	2, 0x3331
   a:	322e                	.insn	2, 0x322e
   c:	302e                	.insn	2, 0x302e
	...

Disassembly of section .riscv.attributes:

00000000 <.riscv.attributes>:
   0:	3641                	.insn	2, 0x3641
   2:	0000                	.insn	2, 0x
   4:	7200                	.insn	2, 0x7200
   6:	7369                	.insn	2, 0x7369
   8:	01007663          	bgeu	zero,a6,14 <_isr_routine+0xc>
   c:	002c                	.insn	2, 0x002c
   e:	0000                	.insn	2, 0x
  10:	1004                	.insn	2, 0x1004
  12:	7205                	.insn	2, 0x7205
  14:	3376                	.insn	2, 0x3376
  16:	6932                	.insn	2, 0x6932
  18:	7032                	.insn	2, 0x7032
  1a:	5f31                	.insn	2, 0x5f31
  1c:	326d                	.insn	2, 0x326d
  1e:	3070                	.insn	2, 0x3070
  20:	7a5f 6369 7273      	.insn	6, 0x727363697a5f
  26:	7032                	.insn	2, 0x7032
  28:	5f30                	.insn	2, 0x5f30
  2a:	6d7a                	.insn	2, 0x6d7a
  2c:	756d                	.insn	2, 0x756d
  2e:	316c                	.insn	2, 0x316c
  30:	3070                	.insn	2, 0x3070
  32:	0800                	.insn	2, 0x0800
  34:	0a01                	.insn	2, 0x0a01
  36:	Address 0x36 is out of bounds.

